Archive member included to satisfy reference by file (symbol)

./libopencm3/lib/libopencm3_stm32f4.a(gpio_common_f0234.o)
                              ./.obj/main.o (gpio_mode_setup)
./libopencm3/lib/libopencm3_stm32f4.a(rcc_common_all.o)
                              ./.obj/main.o (rcc_periph_clock_enable)
./libopencm3/lib/libopencm3_stm32f4.a(rcc.o)
                              ./.obj/main.o (rcc_is_osc_ready)
./libopencm3/lib/libopencm3_stm32f4.a(timer_common_all.o)
                              ./.obj/Time.o (timer_enable_irq)
./libopencm3/lib/libopencm3_stm32f4.a(usart_common_all.o)
                              ./.obj/main.o (usart_set_baudrate)
./libopencm3/lib/libopencm3_stm32f4.a(usart_common_f124.o)
                              ./libopencm3/lib/libopencm3_stm32f4.a(usart_common_all.o) (usart_send)
./libopencm3/lib/libopencm3_stm32f4.a(vector.o)
                              (reset_handler)
./libopencm3/lib/libopencm3_stm32f4.a(scb.o)
                              ./.obj/main.o (scb_reset_system)
./libopencm3/lib/libopencm3_stm32f4.a(nvic.o)
                              ./.obj/main.o (nvic_enable_irq)
./libopencm3/lib/libopencm3_stm32f4.a(flash_common_all.o)
                              ./libopencm3/lib/libopencm3_stm32f4.a(rcc.o) (flash_set_ws)
./libopencm3/lib/libopencm3_stm32f4.a(flash_common_idcache.o)
                              ./libopencm3/lib/libopencm3_stm32f4.a(rcc.o) (flash_dcache_enable)
./libopencm3/lib/libopencm3_stm32f4.a(pwr.o)
                              ./libopencm3/lib/libopencm3_stm32f4.a(rcc.o) (pwr_set_vos_scale)
/usr/lib/gcc/arm-none-eabi/10.3.1/../../../arm-none-eabi/lib/thumb/v7e-m+fp/hard/libc.a(lib_a-malloc.o)
                              ./.obj/cli_queue.o (malloc)
/usr/lib/gcc/arm-none-eabi/10.3.1/../../../arm-none-eabi/lib/thumb/v7e-m+fp/hard/libc.a(lib_a-mallocr.o)
                              /usr/lib/gcc/arm-none-eabi/10.3.1/../../../arm-none-eabi/lib/thumb/v7e-m+fp/hard/libc.a(lib_a-malloc.o) (_malloc_r)
/usr/lib/gcc/arm-none-eabi/10.3.1/../../../arm-none-eabi/lib/thumb/v7e-m+fp/hard/libc.a(lib_a-memcmp.o)
                              ./.obj/cli_queue.o (memcmp)
/usr/lib/gcc/arm-none-eabi/10.3.1/../../../arm-none-eabi/lib/thumb/v7e-m+fp/hard/libc.a(lib_a-memcpy.o)
                              ./.obj/cli_queue.o (memcpy)
/usr/lib/gcc/arm-none-eabi/10.3.1/../../../arm-none-eabi/lib/thumb/v7e-m+fp/hard/libc.a(lib_a-mlock.o)
                              /usr/lib/gcc/arm-none-eabi/10.3.1/../../../arm-none-eabi/lib/thumb/v7e-m+fp/hard/libc.a(lib_a-mallocr.o) (__malloc_lock)
/usr/lib/gcc/arm-none-eabi/10.3.1/../../../arm-none-eabi/lib/thumb/v7e-m+fp/hard/libc.a(lib_a-sbrkr.o)
                              /usr/lib/gcc/arm-none-eabi/10.3.1/../../../arm-none-eabi/lib/thumb/v7e-m+fp/hard/libc.a(lib_a-mallocr.o) (_sbrk_r)
/usr/lib/gcc/arm-none-eabi/10.3.1/../../../arm-none-eabi/lib/thumb/v7e-m+fp/hard/libc.a(lib_a-sprintf.o)
                              ./.obj/terminal.o (sprintf)
/usr/lib/gcc/arm-none-eabi/10.3.1/../../../arm-none-eabi/lib/thumb/v7e-m+fp/hard/libc.a(lib_a-strcpy.o)
                              ./.obj/main.o (strcpy)
/usr/lib/gcc/arm-none-eabi/10.3.1/../../../arm-none-eabi/lib/thumb/v7e-m+fp/hard/libc.a(lib_a-strtol.o)
                              ./.obj/terminal.o (strtol)
/usr/lib/gcc/arm-none-eabi/10.3.1/../../../arm-none-eabi/lib/thumb/v7e-m+fp/hard/libc.a(lib_a-svfprintf.o)
                              /usr/lib/gcc/arm-none-eabi/10.3.1/../../../arm-none-eabi/lib/thumb/v7e-m+fp/hard/libc.a(lib_a-sprintf.o) (_svfprintf_r)
/usr/lib/gcc/arm-none-eabi/10.3.1/../../../arm-none-eabi/lib/thumb/v7e-m+fp/hard/libc.a(lib_a-ctype_.o)
                              /usr/lib/gcc/arm-none-eabi/10.3.1/../../../arm-none-eabi/lib/thumb/v7e-m+fp/hard/libc.a(lib_a-strtol.o) (_ctype_)
/usr/lib/gcc/arm-none-eabi/10.3.1/../../../arm-none-eabi/lib/thumb/v7e-m+fp/hard/libc.a(lib_a-dtoa.o)
                              /usr/lib/gcc/arm-none-eabi/10.3.1/../../../arm-none-eabi/lib/thumb/v7e-m+fp/hard/libc.a(lib_a-svfprintf.o) (_dtoa_r)
/usr/lib/gcc/arm-none-eabi/10.3.1/../../../arm-none-eabi/lib/thumb/v7e-m+fp/hard/libc.a(lib_a-errno.o)
                              /usr/lib/gcc/arm-none-eabi/10.3.1/../../../arm-none-eabi/lib/thumb/v7e-m+fp/hard/libc.a(lib_a-strtol.o) (__errno)
/usr/lib/gcc/arm-none-eabi/10.3.1/../../../arm-none-eabi/lib/thumb/v7e-m+fp/hard/libc.a(lib_a-freer.o)
                              /usr/lib/gcc/arm-none-eabi/10.3.1/../../../arm-none-eabi/lib/thumb/v7e-m+fp/hard/libc.a(lib_a-malloc.o) (_free_r)
/usr/lib/gcc/arm-none-eabi/10.3.1/../../../arm-none-eabi/lib/thumb/v7e-m+fp/hard/libc.a(lib_a-impure.o)
                              /usr/lib/gcc/arm-none-eabi/10.3.1/../../../arm-none-eabi/lib/thumb/v7e-m+fp/hard/libc.a(lib_a-malloc.o) (_impure_ptr)
/usr/lib/gcc/arm-none-eabi/10.3.1/../../../arm-none-eabi/lib/thumb/v7e-m+fp/hard/libc.a(lib_a-localeconv.o)
                              /usr/lib/gcc/arm-none-eabi/10.3.1/../../../arm-none-eabi/lib/thumb/v7e-m+fp/hard/libc.a(lib_a-svfprintf.o) (_localeconv_r)
/usr/lib/gcc/arm-none-eabi/10.3.1/../../../arm-none-eabi/lib/thumb/v7e-m+fp/hard/libc.a(lib_a-memchr.o)
                              /usr/lib/gcc/arm-none-eabi/10.3.1/../../../arm-none-eabi/lib/thumb/v7e-m+fp/hard/libc.a(lib_a-svfprintf.o) (memchr)
/usr/lib/gcc/arm-none-eabi/10.3.1/../../../arm-none-eabi/lib/thumb/v7e-m+fp/hard/libc.a(lib_a-mprec.o)
                              /usr/lib/gcc/arm-none-eabi/10.3.1/../../../arm-none-eabi/lib/thumb/v7e-m+fp/hard/libc.a(lib_a-dtoa.o) (_Balloc)
/usr/lib/gcc/arm-none-eabi/10.3.1/../../../arm-none-eabi/lib/thumb/v7e-m+fp/hard/libc.a(lib_a-reent.o)
                              /usr/lib/gcc/arm-none-eabi/10.3.1/../../../arm-none-eabi/lib/thumb/v7e-m+fp/hard/libc.a(lib_a-sbrkr.o) (errno)
/usr/lib/gcc/arm-none-eabi/10.3.1/../../../arm-none-eabi/lib/thumb/v7e-m+fp/hard/libc.a(lib_a-strlen.o)
                              /usr/lib/gcc/arm-none-eabi/10.3.1/../../../arm-none-eabi/lib/thumb/v7e-m+fp/hard/libc.a(lib_a-svfprintf.o) (strlen)
/usr/lib/gcc/arm-none-eabi/10.3.1/../../../arm-none-eabi/lib/thumb/v7e-m+fp/hard/libc.a(lib_a-svfiprintf.o)
                              /usr/lib/gcc/arm-none-eabi/10.3.1/../../../arm-none-eabi/lib/thumb/v7e-m+fp/hard/libc.a(lib_a-svfprintf.o) (__ssprint_r)
/usr/lib/gcc/arm-none-eabi/10.3.1/../../../arm-none-eabi/lib/thumb/v7e-m+fp/hard/libc.a(lib_a-assert.o)
                              /usr/lib/gcc/arm-none-eabi/10.3.1/../../../arm-none-eabi/lib/thumb/v7e-m+fp/hard/libc.a(lib_a-dtoa.o) (__assert_func)
/usr/lib/gcc/arm-none-eabi/10.3.1/../../../arm-none-eabi/lib/thumb/v7e-m+fp/hard/libc.a(lib_a-callocr.o)
                              /usr/lib/gcc/arm-none-eabi/10.3.1/../../../arm-none-eabi/lib/thumb/v7e-m+fp/hard/libc.a(lib_a-mprec.o) (_calloc_r)
/usr/lib/gcc/arm-none-eabi/10.3.1/../../../arm-none-eabi/lib/thumb/v7e-m+fp/hard/libc.a(lib_a-fiprintf.o)
                              /usr/lib/gcc/arm-none-eabi/10.3.1/../../../arm-none-eabi/lib/thumb/v7e-m+fp/hard/libc.a(lib_a-assert.o) (fiprintf)
/usr/lib/gcc/arm-none-eabi/10.3.1/../../../arm-none-eabi/lib/thumb/v7e-m+fp/hard/libc.a(lib_a-locale.o)
                              /usr/lib/gcc/arm-none-eabi/10.3.1/../../../arm-none-eabi/lib/thumb/v7e-m+fp/hard/libc.a(lib_a-localeconv.o) (__global_locale)
/usr/lib/gcc/arm-none-eabi/10.3.1/../../../arm-none-eabi/lib/thumb/v7e-m+fp/hard/libc.a(lib_a-mbtowc_r.o)
                              /usr/lib/gcc/arm-none-eabi/10.3.1/../../../arm-none-eabi/lib/thumb/v7e-m+fp/hard/libc.a(lib_a-locale.o) (__ascii_mbtowc)
/usr/lib/gcc/arm-none-eabi/10.3.1/../../../arm-none-eabi/lib/thumb/v7e-m+fp/hard/libc.a(lib_a-memmove.o)
                              /usr/lib/gcc/arm-none-eabi/10.3.1/../../../arm-none-eabi/lib/thumb/v7e-m+fp/hard/libc.a(lib_a-svfiprintf.o) (memmove)
/usr/lib/gcc/arm-none-eabi/10.3.1/../../../arm-none-eabi/lib/thumb/v7e-m+fp/hard/libc.a(lib_a-memset.o)
                              /usr/lib/gcc/arm-none-eabi/10.3.1/../../../arm-none-eabi/lib/thumb/v7e-m+fp/hard/libc.a(lib_a-callocr.o) (memset)
/usr/lib/gcc/arm-none-eabi/10.3.1/../../../arm-none-eabi/lib/thumb/v7e-m+fp/hard/libc.a(lib_a-reallocr.o)
                              /usr/lib/gcc/arm-none-eabi/10.3.1/../../../arm-none-eabi/lib/thumb/v7e-m+fp/hard/libc.a(lib_a-svfiprintf.o) (_realloc_r)
/usr/lib/gcc/arm-none-eabi/10.3.1/../../../arm-none-eabi/lib/thumb/v7e-m+fp/hard/libc.a(lib_a-strcmp.o)
                              /usr/lib/gcc/arm-none-eabi/10.3.1/../../../arm-none-eabi/lib/thumb/v7e-m+fp/hard/libc.a(lib_a-locale.o) (strcmp)
/usr/lib/gcc/arm-none-eabi/10.3.1/../../../arm-none-eabi/lib/thumb/v7e-m+fp/hard/libc.a(lib_a-vfiprintf.o)
                              /usr/lib/gcc/arm-none-eabi/10.3.1/../../../arm-none-eabi/lib/thumb/v7e-m+fp/hard/libc.a(lib_a-fiprintf.o) (_vfiprintf_r)
/usr/lib/gcc/arm-none-eabi/10.3.1/../../../arm-none-eabi/lib/thumb/v7e-m+fp/hard/libc.a(lib_a-wctomb_r.o)
                              /usr/lib/gcc/arm-none-eabi/10.3.1/../../../arm-none-eabi/lib/thumb/v7e-m+fp/hard/libc.a(lib_a-locale.o) (__ascii_wctomb)
/usr/lib/gcc/arm-none-eabi/10.3.1/../../../arm-none-eabi/lib/thumb/v7e-m+fp/hard/libc.a(lib_a-wsetup.o)
                              /usr/lib/gcc/arm-none-eabi/10.3.1/../../../arm-none-eabi/lib/thumb/v7e-m+fp/hard/libc.a(lib_a-vfiprintf.o) (__swsetup_r)
/usr/lib/gcc/arm-none-eabi/10.3.1/../../../arm-none-eabi/lib/thumb/v7e-m+fp/hard/libc.a(lib_a-abort.o)
                              /usr/lib/gcc/arm-none-eabi/10.3.1/../../../arm-none-eabi/lib/thumb/v7e-m+fp/hard/libc.a(lib_a-assert.o) (abort)
/usr/lib/gcc/arm-none-eabi/10.3.1/../../../arm-none-eabi/lib/thumb/v7e-m+fp/hard/libc.a(lib_a-fflush.o)
                              /usr/lib/gcc/arm-none-eabi/10.3.1/../../../arm-none-eabi/lib/thumb/v7e-m+fp/hard/libc.a(lib_a-vfiprintf.o) (_fflush_r)
/usr/lib/gcc/arm-none-eabi/10.3.1/../../../arm-none-eabi/lib/thumb/v7e-m+fp/hard/libc.a(lib_a-findfp.o)
                              /usr/lib/gcc/arm-none-eabi/10.3.1/../../../arm-none-eabi/lib/thumb/v7e-m+fp/hard/libc.a(lib_a-vfiprintf.o) (__sinit)
/usr/lib/gcc/arm-none-eabi/10.3.1/../../../arm-none-eabi/lib/thumb/v7e-m+fp/hard/libc.a(lib_a-fputwc.o)
                              /usr/lib/gcc/arm-none-eabi/10.3.1/../../../arm-none-eabi/lib/thumb/v7e-m+fp/hard/libc.a(lib_a-vfiprintf.o) (_fputwc_r)
/usr/lib/gcc/arm-none-eabi/10.3.1/../../../arm-none-eabi/lib/thumb/v7e-m+fp/hard/libc.a(lib_a-fvwrite.o)
                              /usr/lib/gcc/arm-none-eabi/10.3.1/../../../arm-none-eabi/lib/thumb/v7e-m+fp/hard/libc.a(lib_a-vfiprintf.o) (__sfvwrite_r)
/usr/lib/gcc/arm-none-eabi/10.3.1/../../../arm-none-eabi/lib/thumb/v7e-m+fp/hard/libc.a(lib_a-fwalk.o)
                              /usr/lib/gcc/arm-none-eabi/10.3.1/../../../arm-none-eabi/lib/thumb/v7e-m+fp/hard/libc.a(lib_a-findfp.o) (_fwalk)
/usr/lib/gcc/arm-none-eabi/10.3.1/../../../arm-none-eabi/lib/thumb/v7e-m+fp/hard/libc.a(lib_a-makebuf.o)
                              /usr/lib/gcc/arm-none-eabi/10.3.1/../../../arm-none-eabi/lib/thumb/v7e-m+fp/hard/libc.a(lib_a-wsetup.o) (__smakebuf_r)
/usr/lib/gcc/arm-none-eabi/10.3.1/../../../arm-none-eabi/lib/thumb/v7e-m+fp/hard/libc.a(lib_a-signal.o)
                              /usr/lib/gcc/arm-none-eabi/10.3.1/../../../arm-none-eabi/lib/thumb/v7e-m+fp/hard/libc.a(lib_a-abort.o) (raise)
/usr/lib/gcc/arm-none-eabi/10.3.1/../../../arm-none-eabi/lib/thumb/v7e-m+fp/hard/libc.a(lib_a-signalr.o)
                              /usr/lib/gcc/arm-none-eabi/10.3.1/../../../arm-none-eabi/lib/thumb/v7e-m+fp/hard/libc.a(lib_a-signal.o) (_kill_r)
/usr/lib/gcc/arm-none-eabi/10.3.1/../../../arm-none-eabi/lib/thumb/v7e-m+fp/hard/libc.a(lib_a-stdio.o)
                              /usr/lib/gcc/arm-none-eabi/10.3.1/../../../arm-none-eabi/lib/thumb/v7e-m+fp/hard/libc.a(lib_a-findfp.o) (__sread)
/usr/lib/gcc/arm-none-eabi/10.3.1/../../../arm-none-eabi/lib/thumb/v7e-m+fp/hard/libc.a(lib_a-wbuf.o)
                              /usr/lib/gcc/arm-none-eabi/10.3.1/../../../arm-none-eabi/lib/thumb/v7e-m+fp/hard/libc.a(lib_a-fputwc.o) (__swbuf_r)
/usr/lib/gcc/arm-none-eabi/10.3.1/../../../arm-none-eabi/lib/thumb/v7e-m+fp/hard/libc.a(lib_a-wcrtomb.o)
                              /usr/lib/gcc/arm-none-eabi/10.3.1/../../../arm-none-eabi/lib/thumb/v7e-m+fp/hard/libc.a(lib_a-fputwc.o) (_wcrtomb_r)
/usr/lib/gcc/arm-none-eabi/10.3.1/../../../arm-none-eabi/lib/thumb/v7e-m+fp/hard/libc.a(lib_a-writer.o)
                              /usr/lib/gcc/arm-none-eabi/10.3.1/../../../arm-none-eabi/lib/thumb/v7e-m+fp/hard/libc.a(lib_a-stdio.o) (_write_r)
/usr/lib/gcc/arm-none-eabi/10.3.1/../../../arm-none-eabi/lib/thumb/v7e-m+fp/hard/libc.a(lib_a-closer.o)
                              /usr/lib/gcc/arm-none-eabi/10.3.1/../../../arm-none-eabi/lib/thumb/v7e-m+fp/hard/libc.a(lib_a-stdio.o) (_close_r)
/usr/lib/gcc/arm-none-eabi/10.3.1/../../../arm-none-eabi/lib/thumb/v7e-m+fp/hard/libc.a(lib_a-fclose.o)
                              /usr/lib/gcc/arm-none-eabi/10.3.1/../../../arm-none-eabi/lib/thumb/v7e-m+fp/hard/libc.a(lib_a-findfp.o) (_fclose_r)
/usr/lib/gcc/arm-none-eabi/10.3.1/../../../arm-none-eabi/lib/thumb/v7e-m+fp/hard/libc.a(lib_a-fstatr.o)
                              /usr/lib/gcc/arm-none-eabi/10.3.1/../../../arm-none-eabi/lib/thumb/v7e-m+fp/hard/libc.a(lib_a-makebuf.o) (_fstat_r)
/usr/lib/gcc/arm-none-eabi/10.3.1/../../../arm-none-eabi/lib/thumb/v7e-m+fp/hard/libc.a(lib_a-isattyr.o)
                              /usr/lib/gcc/arm-none-eabi/10.3.1/../../../arm-none-eabi/lib/thumb/v7e-m+fp/hard/libc.a(lib_a-makebuf.o) (_isatty_r)
/usr/lib/gcc/arm-none-eabi/10.3.1/../../../arm-none-eabi/lib/thumb/v7e-m+fp/hard/libc.a(lib_a-lseekr.o)
                              /usr/lib/gcc/arm-none-eabi/10.3.1/../../../arm-none-eabi/lib/thumb/v7e-m+fp/hard/libc.a(lib_a-stdio.o) (_lseek_r)
/usr/lib/gcc/arm-none-eabi/10.3.1/../../../arm-none-eabi/lib/thumb/v7e-m+fp/hard/libc.a(lib_a-readr.o)
                              /usr/lib/gcc/arm-none-eabi/10.3.1/../../../arm-none-eabi/lib/thumb/v7e-m+fp/hard/libc.a(lib_a-stdio.o) (_read_r)
/usr/lib/gcc/arm-none-eabi/10.3.1/thumb/v7e-m+fp/hard/libgcc.a(_arm_muldf3.o)
                              /usr/lib/gcc/arm-none-eabi/10.3.1/../../../arm-none-eabi/lib/thumb/v7e-m+fp/hard/libc.a(lib_a-dtoa.o) (__aeabi_dmul)
/usr/lib/gcc/arm-none-eabi/10.3.1/thumb/v7e-m+fp/hard/libgcc.a(_arm_addsubdf3.o)
                              /usr/lib/gcc/arm-none-eabi/10.3.1/../../../arm-none-eabi/lib/thumb/v7e-m+fp/hard/libc.a(lib_a-dtoa.o) (__aeabi_dsub)
/usr/lib/gcc/arm-none-eabi/10.3.1/thumb/v7e-m+fp/hard/libgcc.a(_arm_muldivdf3.o)
                              /usr/lib/gcc/arm-none-eabi/10.3.1/../../../arm-none-eabi/lib/thumb/v7e-m+fp/hard/libc.a(lib_a-dtoa.o) (__aeabi_ddiv)
/usr/lib/gcc/arm-none-eabi/10.3.1/thumb/v7e-m+fp/hard/libgcc.a(_arm_cmpdf2.o)
                              /usr/lib/gcc/arm-none-eabi/10.3.1/../../../arm-none-eabi/lib/thumb/v7e-m+fp/hard/libc.a(lib_a-svfprintf.o) (__aeabi_dcmpeq)
/usr/lib/gcc/arm-none-eabi/10.3.1/thumb/v7e-m+fp/hard/libgcc.a(_arm_unorddf2.o)
                              /usr/lib/gcc/arm-none-eabi/10.3.1/../../../arm-none-eabi/lib/thumb/v7e-m+fp/hard/libc.a(lib_a-svfprintf.o) (__aeabi_dcmpun)
/usr/lib/gcc/arm-none-eabi/10.3.1/thumb/v7e-m+fp/hard/libgcc.a(_arm_fixdfsi.o)
                              /usr/lib/gcc/arm-none-eabi/10.3.1/../../../arm-none-eabi/lib/thumb/v7e-m+fp/hard/libc.a(lib_a-dtoa.o) (__aeabi_d2iz)
/usr/lib/gcc/arm-none-eabi/10.3.1/thumb/v7e-m+fp/hard/libgcc.a(_arm_addsubsf3.o)
                              ./.obj/cli_time.o (__aeabi_ul2f)
/usr/lib/gcc/arm-none-eabi/10.3.1/thumb/v7e-m+fp/hard/libgcc.a(_aeabi_uldivmod.o)
                              /usr/lib/gcc/arm-none-eabi/10.3.1/../../../arm-none-eabi/lib/thumb/v7e-m+fp/hard/libc.a(lib_a-svfprintf.o) (__aeabi_uldivmod)
/usr/lib/gcc/arm-none-eabi/10.3.1/thumb/v7e-m+fp/hard/libgcc.a(_udivmoddi4.o)
                              /usr/lib/gcc/arm-none-eabi/10.3.1/thumb/v7e-m+fp/hard/libgcc.a(_aeabi_uldivmod.o) (__udivmoddi4)
/usr/lib/gcc/arm-none-eabi/10.3.1/thumb/v7e-m+fp/hard/libgcc.a(_dvmd_tls.o)
                              /usr/lib/gcc/arm-none-eabi/10.3.1/thumb/v7e-m+fp/hard/libgcc.a(_aeabi_uldivmod.o) (__aeabi_ldiv0)
/usr/lib/gcc/arm-none-eabi/10.3.1/../../../arm-none-eabi/lib/thumb/v7e-m+fp/hard/libnosys.a(close.o)
                              /usr/lib/gcc/arm-none-eabi/10.3.1/../../../arm-none-eabi/lib/thumb/v7e-m+fp/hard/libc.a(lib_a-closer.o) (_close)
/usr/lib/gcc/arm-none-eabi/10.3.1/../../../arm-none-eabi/lib/thumb/v7e-m+fp/hard/libnosys.a(fstat.o)
                              /usr/lib/gcc/arm-none-eabi/10.3.1/../../../arm-none-eabi/lib/thumb/v7e-m+fp/hard/libc.a(lib_a-fstatr.o) (_fstat)
/usr/lib/gcc/arm-none-eabi/10.3.1/../../../arm-none-eabi/lib/thumb/v7e-m+fp/hard/libnosys.a(getpid.o)
                              /usr/lib/gcc/arm-none-eabi/10.3.1/../../../arm-none-eabi/lib/thumb/v7e-m+fp/hard/libc.a(lib_a-signalr.o) (_getpid)
/usr/lib/gcc/arm-none-eabi/10.3.1/../../../arm-none-eabi/lib/thumb/v7e-m+fp/hard/libnosys.a(isatty.o)
                              /usr/lib/gcc/arm-none-eabi/10.3.1/../../../arm-none-eabi/lib/thumb/v7e-m+fp/hard/libc.a(lib_a-isattyr.o) (_isatty)
/usr/lib/gcc/arm-none-eabi/10.3.1/../../../arm-none-eabi/lib/thumb/v7e-m+fp/hard/libnosys.a(kill.o)
                              /usr/lib/gcc/arm-none-eabi/10.3.1/../../../arm-none-eabi/lib/thumb/v7e-m+fp/hard/libc.a(lib_a-signalr.o) (_kill)
/usr/lib/gcc/arm-none-eabi/10.3.1/../../../arm-none-eabi/lib/thumb/v7e-m+fp/hard/libnosys.a(lseek.o)
                              /usr/lib/gcc/arm-none-eabi/10.3.1/../../../arm-none-eabi/lib/thumb/v7e-m+fp/hard/libc.a(lib_a-lseekr.o) (_lseek)
/usr/lib/gcc/arm-none-eabi/10.3.1/../../../arm-none-eabi/lib/thumb/v7e-m+fp/hard/libnosys.a(read.o)
                              /usr/lib/gcc/arm-none-eabi/10.3.1/../../../arm-none-eabi/lib/thumb/v7e-m+fp/hard/libc.a(lib_a-readr.o) (_read)
/usr/lib/gcc/arm-none-eabi/10.3.1/../../../arm-none-eabi/lib/thumb/v7e-m+fp/hard/libnosys.a(sbrk.o)
                              /usr/lib/gcc/arm-none-eabi/10.3.1/../../../arm-none-eabi/lib/thumb/v7e-m+fp/hard/libc.a(lib_a-sbrkr.o) (_sbrk)
/usr/lib/gcc/arm-none-eabi/10.3.1/../../../arm-none-eabi/lib/thumb/v7e-m+fp/hard/libnosys.a(write.o)
                              /usr/lib/gcc/arm-none-eabi/10.3.1/../../../arm-none-eabi/lib/thumb/v7e-m+fp/hard/libc.a(lib_a-writer.o) (_write)
/usr/lib/gcc/arm-none-eabi/10.3.1/../../../arm-none-eabi/lib/thumb/v7e-m+fp/hard/libnosys.a(_exit.o)
                              /usr/lib/gcc/arm-none-eabi/10.3.1/../../../arm-none-eabi/lib/thumb/v7e-m+fp/hard/libc.a(lib_a-abort.o) (_exit)

Discarded input sections

 .group         0x0000000000000000        0xc ./.obj/main.o
 .group         0x0000000000000000        0xc ./.obj/main.o
 .group         0x0000000000000000        0xc ./.obj/main.o
 .group         0x0000000000000000        0xc ./.obj/main.o
 .group         0x0000000000000000        0xc ./.obj/main.o
 .group         0x0000000000000000        0xc ./.obj/main.o
 .group         0x0000000000000000        0xc ./.obj/main.o
 .group         0x0000000000000000        0xc ./.obj/main.o
 .group         0x0000000000000000        0xc ./.obj/main.o
 .group         0x0000000000000000        0xc ./.obj/main.o
 .group         0x0000000000000000        0xc ./.obj/main.o
 .group         0x0000000000000000        0xc ./.obj/main.o
 .group         0x0000000000000000        0xc ./.obj/main.o
 .group         0x0000000000000000        0xc ./.obj/main.o
 .group         0x0000000000000000        0xc ./.obj/main.o
 .group         0x0000000000000000        0xc ./.obj/main.o
 .group         0x0000000000000000        0xc ./.obj/main.o
 .group         0x0000000000000000        0xc ./.obj/main.o
 .group         0x0000000000000000        0xc ./.obj/main.o
 .group         0x0000000000000000        0xc ./.obj/main.o
 .group         0x0000000000000000        0xc ./.obj/main.o
 .group         0x0000000000000000        0xc ./.obj/main.o
 .group         0x0000000000000000        0xc ./.obj/main.o
 .group         0x0000000000000000        0xc ./.obj/main.o
 .group         0x0000000000000000        0xc ./.obj/main.o
 .group         0x0000000000000000        0xc ./.obj/main.o
 .group         0x0000000000000000        0xc ./.obj/main.o
 .group         0x0000000000000000        0xc ./.obj/main.o
 .group         0x0000000000000000        0xc ./.obj/main.o
 .group         0x0000000000000000        0xc ./.obj/main.o
 .group         0x0000000000000000        0xc ./.obj/main.o
 .group         0x0000000000000000        0xc ./.obj/main.o
 .group         0x0000000000000000        0xc ./.obj/main.o
 .group         0x0000000000000000        0xc ./.obj/main.o
 .group         0x0000000000000000        0xc ./.obj/main.o
 .group         0x0000000000000000        0xc ./.obj/main.o
 .group         0x0000000000000000        0xc ./.obj/main.o
 .group         0x0000000000000000        0xc ./.obj/main.o
 .group         0x0000000000000000        0xc ./.obj/main.o
 .group         0x0000000000000000        0xc ./.obj/main.o
 .group         0x0000000000000000        0xc ./.obj/main.o
 .group         0x0000000000000000        0xc ./.obj/main.o
 .group         0x0000000000000000        0xc ./.obj/main.o
 .group         0x0000000000000000        0xc ./.obj/main.o
 .group         0x0000000000000000        0xc ./.obj/main.o
 .group         0x0000000000000000        0xc ./.obj/main.o
 .group         0x0000000000000000        0xc ./.obj/main.o
 .group         0x0000000000000000        0xc ./.obj/main.o
 .group         0x0000000000000000        0xc ./.obj/main.o
 .group         0x0000000000000000        0xc ./.obj/main.o
 .group         0x0000000000000000        0xc ./.obj/main.o
 .group         0x0000000000000000        0xc ./.obj/main.o
 .group         0x0000000000000000        0xc ./.obj/main.o
 .group         0x0000000000000000        0xc ./.obj/main.o
 .group         0x0000000000000000        0xc ./.obj/main.o
 .group         0x0000000000000000        0xc ./.obj/main.o
 .group         0x0000000000000000        0xc ./.obj/main.o
 .group         0x0000000000000000        0xc ./.obj/main.o
 .group         0x0000000000000000        0xc ./.obj/main.o
 .group         0x0000000000000000        0xc ./.obj/main.o
 .group         0x0000000000000000        0xc ./.obj/main.o
 .text          0x0000000000000000        0x0 ./.obj/main.o
 .data          0x0000000000000000        0x0 ./.obj/main.o
 .bss           0x0000000000000000        0x0 ./.obj/main.o
 .group         0x0000000000000000        0xc ./.obj/Time.o
 .group         0x0000000000000000        0xc ./.obj/Time.o
 .group         0x0000000000000000        0xc ./.obj/Time.o
 .group         0x0000000000000000        0xc ./.obj/Time.o
 .group         0x0000000000000000        0xc ./.obj/Time.o
 .group         0x0000000000000000        0xc ./.obj/Time.o
 .group         0x0000000000000000        0xc ./.obj/Time.o
 .group         0x0000000000000000        0xc ./.obj/Time.o
 .group         0x0000000000000000        0xc ./.obj/Time.o
 .group         0x0000000000000000        0xc ./.obj/Time.o
 .group         0x0000000000000000        0xc ./.obj/Time.o
 .group         0x0000000000000000        0xc ./.obj/Time.o
 .group         0x0000000000000000        0xc ./.obj/Time.o
 .group         0x0000000000000000        0xc ./.obj/Time.o
 .text          0x0000000000000000        0x0 ./.obj/Time.o
 .data          0x0000000000000000        0x0 ./.obj/Time.o
 .bss           0x0000000000000000        0x0 ./.obj/Time.o
 .text.Time_reset_counter
                0x0000000000000000        0xa ./.obj/Time.o
 .debug_macro   0x0000000000000000      0xa78 ./.obj/Time.o
 .debug_macro   0x0000000000000000      0x34e ./.obj/Time.o
 .debug_macro   0x0000000000000000       0x1c ./.obj/Time.o
 .debug_macro   0x0000000000000000       0x22 ./.obj/Time.o
 .debug_macro   0x0000000000000000       0xe8 ./.obj/Time.o
 .debug_macro   0x0000000000000000       0x76 ./.obj/Time.o
 .debug_macro   0x0000000000000000      0xf7d ./.obj/Time.o
 .debug_macro   0x0000000000000000       0x52 ./.obj/Time.o
 .debug_macro   0x0000000000000000       0x8e ./.obj/Time.o
 .debug_macro   0x0000000000000000       0x46 ./.obj/Time.o
 .debug_macro   0x0000000000000000      0xcea ./.obj/Time.o
 .debug_macro   0x0000000000000000       0x6e ./.obj/Time.o
 .debug_macro   0x0000000000000000      0x22c ./.obj/Time.o
 .group         0x0000000000000000        0xc ./.obj/cli_queue.o
 .group         0x0000000000000000        0xc ./.obj/cli_queue.o
 .group         0x0000000000000000        0xc ./.obj/cli_queue.o
 .group         0x0000000000000000        0xc ./.obj/cli_queue.o
 .group         0x0000000000000000        0xc ./.obj/cli_queue.o
 .group         0x0000000000000000        0xc ./.obj/cli_queue.o
 .group         0x0000000000000000        0xc ./.obj/cli_queue.o
 .group         0x0000000000000000        0xc ./.obj/cli_queue.o
 .group         0x0000000000000000        0xc ./.obj/cli_queue.o
 .group         0x0000000000000000        0xc ./.obj/cli_queue.o
 .group         0x0000000000000000        0xc ./.obj/cli_queue.o
 .group         0x0000000000000000        0xc ./.obj/cli_queue.o
 .group         0x0000000000000000        0xc ./.obj/cli_queue.o
 .group         0x0000000000000000        0xc ./.obj/cli_queue.o
 .group         0x0000000000000000        0xc ./.obj/cli_queue.o
 .group         0x0000000000000000        0xc ./.obj/cli_queue.o
 .group         0x0000000000000000        0xc ./.obj/cli_queue.o
 .group         0x0000000000000000        0xc ./.obj/cli_queue.o
 .group         0x0000000000000000        0xc ./.obj/cli_queue.o
 .group         0x0000000000000000        0xc ./.obj/cli_queue.o
 .group         0x0000000000000000        0xc ./.obj/cli_queue.o
 .group         0x0000000000000000        0xc ./.obj/cli_queue.o
 .group         0x0000000000000000        0xc ./.obj/cli_queue.o
 .group         0x0000000000000000        0xc ./.obj/cli_queue.o
 .group         0x0000000000000000        0xc ./.obj/cli_queue.o
 .group         0x0000000000000000        0xc ./.obj/cli_queue.o
 .group         0x0000000000000000        0xc ./.obj/cli_queue.o
 .group         0x0000000000000000        0xc ./.obj/cli_queue.o
 .group         0x0000000000000000        0xc ./.obj/cli_queue.o
 .group         0x0000000000000000        0xc ./.obj/cli_queue.o
 .group         0x0000000000000000        0xc ./.obj/cli_queue.o
 .group         0x0000000000000000        0xc ./.obj/cli_queue.o
 .group         0x0000000000000000        0xc ./.obj/cli_queue.o
 .group         0x0000000000000000        0xc ./.obj/cli_queue.o
 .group         0x0000000000000000        0xc ./.obj/cli_queue.o
 .group         0x0000000000000000        0xc ./.obj/cli_queue.o
 .text          0x0000000000000000        0x0 ./.obj/cli_queue.o
 .data          0x0000000000000000        0x0 ./.obj/cli_queue.o
 .bss           0x0000000000000000        0x0 ./.obj/cli_queue.o
 .text.Q_Free   0x0000000000000000        0x6 ./.obj/cli_queue.o
 .text.Q_Pop    0x0000000000000000       0x42 ./.obj/cli_queue.o
 .text.Q_IsFull
                0x0000000000000000        0xe ./.obj/cli_queue.o
 .text.Q_IsEmpty
                0x0000000000000000        0xa ./.obj/cli_queue.o
 .debug_macro   0x0000000000000000      0xa78 ./.obj/cli_queue.o
 .debug_macro   0x0000000000000000       0x18 ./.obj/cli_queue.o
 .debug_macro   0x0000000000000000       0x22 ./.obj/cli_queue.o
 .debug_macro   0x0000000000000000       0x52 ./.obj/cli_queue.o
 .debug_macro   0x0000000000000000       0x5c ./.obj/cli_queue.o
 .debug_macro   0x0000000000000000       0x35 ./.obj/cli_queue.o
 .debug_macro   0x0000000000000000       0x34 ./.obj/cli_queue.o
 .debug_macro   0x0000000000000000       0x16 ./.obj/cli_queue.o
 .debug_macro   0x0000000000000000       0x16 ./.obj/cli_queue.o
 .debug_macro   0x0000000000000000       0x43 ./.obj/cli_queue.o
 .debug_macro   0x0000000000000000       0x57 ./.obj/cli_queue.o
 .debug_macro   0x0000000000000000       0x34 ./.obj/cli_queue.o
 .debug_macro   0x0000000000000000       0x10 ./.obj/cli_queue.o
 .debug_macro   0x0000000000000000       0x52 ./.obj/cli_queue.o
 .debug_macro   0x0000000000000000      0x182 ./.obj/cli_queue.o
 .debug_macro   0x0000000000000000      0x333 ./.obj/cli_queue.o
 .debug_macro   0x0000000000000000       0x22 ./.obj/cli_queue.o
 .debug_macro   0x0000000000000000      0x34e ./.obj/cli_queue.o
 .debug_macro   0x0000000000000000       0x22 ./.obj/cli_queue.o
 .debug_macro   0x0000000000000000       0x10 ./.obj/cli_queue.o
 .debug_macro   0x0000000000000000       0x35 ./.obj/cli_queue.o
 .debug_macro   0x0000000000000000       0x10 ./.obj/cli_queue.o
 .debug_macro   0x0000000000000000       0x10 ./.obj/cli_queue.o
 .debug_macro   0x0000000000000000       0x6a ./.obj/cli_queue.o
 .debug_macro   0x0000000000000000       0xb2 ./.obj/cli_queue.o
 .debug_macro   0x0000000000000000       0x16 ./.obj/cli_queue.o
 .debug_macro   0x0000000000000000      0x129 ./.obj/cli_queue.o
 .debug_macro   0x0000000000000000       0x10 ./.obj/cli_queue.o
 .debug_macro   0x0000000000000000       0x3c ./.obj/cli_queue.o
 .debug_macro   0x0000000000000000       0x16 ./.obj/cli_queue.o
 .group         0x0000000000000000        0xc ./.obj/cli_string.o
 .group         0x0000000000000000        0xc ./.obj/cli_string.o
 .group         0x0000000000000000        0xc ./.obj/cli_string.o
 .group         0x0000000000000000        0xc ./.obj/cli_string.o
 .group         0x0000000000000000        0xc ./.obj/cli_string.o
 .group         0x0000000000000000        0xc ./.obj/cli_string.o
 .group         0x0000000000000000        0xc ./.obj/cli_string.o
 .group         0x0000000000000000        0xc ./.obj/cli_string.o
 .group         0x0000000000000000        0xc ./.obj/cli_string.o
 .group         0x0000000000000000        0xc ./.obj/cli_string.o
 .group         0x0000000000000000        0xc ./.obj/cli_string.o
 .group         0x0000000000000000        0xc ./.obj/cli_string.o
 .group         0x0000000000000000        0xc ./.obj/cli_string.o
 .group         0x0000000000000000        0xc ./.obj/cli_string.o
 .group         0x0000000000000000        0xc ./.obj/cli_string.o
 .group         0x0000000000000000        0xc ./.obj/cli_string.o
 .group         0x0000000000000000        0xc ./.obj/cli_string.o
 .group         0x0000000000000000        0xc ./.obj/cli_string.o
 .group         0x0000000000000000        0xc ./.obj/cli_string.o
 .group         0x0000000000000000        0xc ./.obj/cli_string.o
 .group         0x0000000000000000        0xc ./.obj/cli_string.o
 .group         0x0000000000000000        0xc ./.obj/cli_string.o
 .group         0x0000000000000000        0xc ./.obj/cli_string.o
 .group         0x0000000000000000        0xc ./.obj/cli_string.o
 .group         0x0000000000000000        0xc ./.obj/cli_string.o
 .group         0x0000000000000000        0xc ./.obj/cli_string.o
 .group         0x0000000000000000        0xc ./.obj/cli_string.o
 .group         0x0000000000000000        0xc ./.obj/cli_string.o
 .group         0x0000000000000000        0xc ./.obj/cli_string.o
 .group         0x0000000000000000        0xc ./.obj/cli_string.o
 .group         0x0000000000000000        0xc ./.obj/cli_string.o
 .group         0x0000000000000000        0xc ./.obj/cli_string.o
 .group         0x0000000000000000        0xc ./.obj/cli_string.o
 .group         0x0000000000000000        0xc ./.obj/cli_string.o
 .group         0x0000000000000000        0xc ./.obj/cli_string.o
 .group         0x0000000000000000        0xc ./.obj/cli_string.o
 .text          0x0000000000000000        0x0 ./.obj/cli_string.o
 .data          0x0000000000000000        0x0 ./.obj/cli_string.o
 .bss           0x0000000000000000        0x0 ./.obj/cli_string.o
 .text._trim    0x0000000000000000       0x78 ./.obj/cli_string.o
 .debug_macro   0x0000000000000000      0xa78 ./.obj/cli_string.o
 .debug_macro   0x0000000000000000      0x34e ./.obj/cli_string.o
 .debug_macro   0x0000000000000000       0x22 ./.obj/cli_string.o
 .debug_macro   0x0000000000000000       0x18 ./.obj/cli_string.o
 .debug_macro   0x0000000000000000       0x22 ./.obj/cli_string.o
 .debug_macro   0x0000000000000000       0x52 ./.obj/cli_string.o
 .debug_macro   0x0000000000000000       0x5c ./.obj/cli_string.o
 .debug_macro   0x0000000000000000       0x35 ./.obj/cli_string.o
 .debug_macro   0x0000000000000000       0x34 ./.obj/cli_string.o
 .debug_macro   0x0000000000000000       0x16 ./.obj/cli_string.o
 .debug_macro   0x0000000000000000      0x10e ./.obj/cli_string.o
 .debug_macro   0x0000000000000000       0x8d ./.obj/cli_string.o
 .debug_macro   0x0000000000000000       0x16 ./.obj/cli_string.o
 .debug_macro   0x0000000000000000       0x43 ./.obj/cli_string.o
 .debug_macro   0x0000000000000000       0x57 ./.obj/cli_string.o
 .debug_macro   0x0000000000000000       0x34 ./.obj/cli_string.o
 .debug_macro   0x0000000000000000       0x10 ./.obj/cli_string.o
 .debug_macro   0x0000000000000000       0x52 ./.obj/cli_string.o
 .debug_macro   0x0000000000000000      0x182 ./.obj/cli_string.o
 .debug_macro   0x0000000000000000      0x333 ./.obj/cli_string.o
 .debug_macro   0x0000000000000000       0x22 ./.obj/cli_string.o
 .debug_macro   0x0000000000000000       0x10 ./.obj/cli_string.o
 .debug_macro   0x0000000000000000       0xe2 ./.obj/cli_string.o
 .debug_macro   0x0000000000000000       0x1c ./.obj/cli_string.o
 .debug_macro   0x0000000000000000       0x35 ./.obj/cli_string.o
 .debug_macro   0x0000000000000000       0x10 ./.obj/cli_string.o
 .debug_macro   0x0000000000000000       0x10 ./.obj/cli_string.o
 .debug_macro   0x0000000000000000       0x6a ./.obj/cli_string.o
 .debug_macro   0x0000000000000000       0xb2 ./.obj/cli_string.o
 .debug_macro   0x0000000000000000       0x16 ./.obj/cli_string.o
 .debug_macro   0x0000000000000000      0x129 ./.obj/cli_string.o
 .debug_macro   0x0000000000000000       0x34 ./.obj/cli_string.o
 .debug_macro   0x0000000000000000       0x10 ./.obj/cli_string.o
 .debug_macro   0x0000000000000000       0x3c ./.obj/cli_string.o
 .debug_macro   0x0000000000000000       0x10 ./.obj/cli_string.o
 .debug_macro   0x0000000000000000       0x16 ./.obj/cli_string.o
 .group         0x0000000000000000        0xc ./.obj/cli_input.o
 .group         0x0000000000000000        0xc ./.obj/cli_input.o
 .group         0x0000000000000000        0xc ./.obj/cli_input.o
 .group         0x0000000000000000        0xc ./.obj/cli_input.o
 .group         0x0000000000000000        0xc ./.obj/cli_input.o
 .group         0x0000000000000000        0xc ./.obj/cli_input.o
 .group         0x0000000000000000        0xc ./.obj/cli_input.o
 .group         0x0000000000000000        0xc ./.obj/cli_input.o
 .group         0x0000000000000000        0xc ./.obj/cli_input.o
 .group         0x0000000000000000        0xc ./.obj/cli_input.o
 .group         0x0000000000000000        0xc ./.obj/cli_input.o
 .group         0x0000000000000000        0xc ./.obj/cli_input.o
 .group         0x0000000000000000        0xc ./.obj/cli_input.o
 .group         0x0000000000000000        0xc ./.obj/cli_input.o
 .group         0x0000000000000000        0xc ./.obj/cli_input.o
 .group         0x0000000000000000        0xc ./.obj/cli_input.o
 .group         0x0000000000000000        0xc ./.obj/cli_input.o
 .group         0x0000000000000000        0xc ./.obj/cli_input.o
 .group         0x0000000000000000        0xc ./.obj/cli_input.o
 .group         0x0000000000000000        0xc ./.obj/cli_input.o
 .group         0x0000000000000000        0xc ./.obj/cli_input.o
 .group         0x0000000000000000        0xc ./.obj/cli_input.o
 .group         0x0000000000000000        0xc ./.obj/cli_input.o
 .group         0x0000000000000000        0xc ./.obj/cli_input.o
 .group         0x0000000000000000        0xc ./.obj/cli_input.o
 .group         0x0000000000000000        0xc ./.obj/cli_input.o
 .group         0x0000000000000000        0xc ./.obj/cli_input.o
 .group         0x0000000000000000        0xc ./.obj/cli_input.o
 .group         0x0000000000000000        0xc ./.obj/cli_input.o
 .group         0x0000000000000000        0xc ./.obj/cli_input.o
 .group         0x0000000000000000        0xc ./.obj/cli_input.o
 .group         0x0000000000000000        0xc ./.obj/cli_input.o
 .group         0x0000000000000000        0xc ./.obj/cli_input.o
 .group         0x0000000000000000        0xc ./.obj/cli_input.o
 .group         0x0000000000000000        0xc ./.obj/cli_input.o
 .group         0x0000000000000000        0xc ./.obj/cli_input.o
 .group         0x0000000000000000        0xc ./.obj/cli_input.o
 .text          0x0000000000000000        0x0 ./.obj/cli_input.o
 .data          0x0000000000000000        0x0 ./.obj/cli_input.o
 .bss           0x0000000000000000        0x0 ./.obj/cli_input.o
 .text.INPUT_CursorTo
                0x0000000000000000       0x10 ./.obj/cli_input.o
 .debug_macro   0x0000000000000000      0xa78 ./.obj/cli_input.o
 .debug_macro   0x0000000000000000       0x22 ./.obj/cli_input.o
 .debug_macro   0x0000000000000000      0x34e ./.obj/cli_input.o
 .debug_macro   0x0000000000000000       0x18 ./.obj/cli_input.o
 .debug_macro   0x0000000000000000       0x22 ./.obj/cli_input.o
 .debug_macro   0x0000000000000000       0x52 ./.obj/cli_input.o
 .debug_macro   0x0000000000000000       0x5c ./.obj/cli_input.o
 .debug_macro   0x0000000000000000       0x35 ./.obj/cli_input.o
 .debug_macro   0x0000000000000000       0x34 ./.obj/cli_input.o
 .debug_macro   0x0000000000000000       0x16 ./.obj/cli_input.o
 .debug_macro   0x0000000000000000      0x10e ./.obj/cli_input.o
 .debug_macro   0x0000000000000000       0x8d ./.obj/cli_input.o
 .debug_macro   0x0000000000000000       0x16 ./.obj/cli_input.o
 .debug_macro   0x0000000000000000       0x43 ./.obj/cli_input.o
 .debug_macro   0x0000000000000000       0x57 ./.obj/cli_input.o
 .debug_macro   0x0000000000000000       0x34 ./.obj/cli_input.o
 .debug_macro   0x0000000000000000       0x10 ./.obj/cli_input.o
 .debug_macro   0x0000000000000000       0x52 ./.obj/cli_input.o
 .debug_macro   0x0000000000000000      0x182 ./.obj/cli_input.o
 .debug_macro   0x0000000000000000      0x333 ./.obj/cli_input.o
 .debug_macro   0x0000000000000000       0x22 ./.obj/cli_input.o
 .debug_macro   0x0000000000000000       0x10 ./.obj/cli_input.o
 .debug_macro   0x0000000000000000       0xe2 ./.obj/cli_input.o
 .debug_macro   0x0000000000000000       0x1c ./.obj/cli_input.o
 .debug_macro   0x0000000000000000       0x35 ./.obj/cli_input.o
 .debug_macro   0x0000000000000000       0x10 ./.obj/cli_input.o
 .debug_macro   0x0000000000000000       0x10 ./.obj/cli_input.o
 .debug_macro   0x0000000000000000       0x6a ./.obj/cli_input.o
 .debug_macro   0x0000000000000000       0xb2 ./.obj/cli_input.o
 .debug_macro   0x0000000000000000       0x16 ./.obj/cli_input.o
 .debug_macro   0x0000000000000000      0x129 ./.obj/cli_input.o
 .debug_macro   0x0000000000000000       0x34 ./.obj/cli_input.o
 .debug_macro   0x0000000000000000       0x10 ./.obj/cli_input.o
 .debug_macro   0x0000000000000000       0x3c ./.obj/cli_input.o
 .debug_macro   0x0000000000000000       0x10 ./.obj/cli_input.o
 .debug_macro   0x0000000000000000       0x16 ./.obj/cli_input.o
 .group         0x0000000000000000        0xc ./.obj/cli_log.o
 .group         0x0000000000000000        0xc ./.obj/cli_log.o
 .group         0x0000000000000000        0xc ./.obj/cli_log.o
 .group         0x0000000000000000        0xc ./.obj/cli_log.o
 .group         0x0000000000000000        0xc ./.obj/cli_log.o
 .group         0x0000000000000000        0xc ./.obj/cli_log.o
 .group         0x0000000000000000        0xc ./.obj/cli_log.o
 .group         0x0000000000000000        0xc ./.obj/cli_log.o
 .group         0x0000000000000000        0xc ./.obj/cli_log.o
 .group         0x0000000000000000        0xc ./.obj/cli_log.o
 .group         0x0000000000000000        0xc ./.obj/cli_log.o
 .group         0x0000000000000000        0xc ./.obj/cli_log.o
 .group         0x0000000000000000        0xc ./.obj/cli_log.o
 .group         0x0000000000000000        0xc ./.obj/cli_log.o
 .group         0x0000000000000000        0xc ./.obj/cli_log.o
 .group         0x0000000000000000        0xc ./.obj/cli_log.o
 .group         0x0000000000000000        0xc ./.obj/cli_log.o
 .group         0x0000000000000000        0xc ./.obj/cli_log.o
 .group         0x0000000000000000        0xc ./.obj/cli_log.o
 .group         0x0000000000000000        0xc ./.obj/cli_log.o
 .group         0x0000000000000000        0xc ./.obj/cli_log.o
 .group         0x0000000000000000        0xc ./.obj/cli_log.o
 .group         0x0000000000000000        0xc ./.obj/cli_log.o
 .group         0x0000000000000000        0xc ./.obj/cli_log.o
 .group         0x0000000000000000        0xc ./.obj/cli_log.o
 .group         0x0000000000000000        0xc ./.obj/cli_log.o
 .group         0x0000000000000000        0xc ./.obj/cli_log.o
 .group         0x0000000000000000        0xc ./.obj/cli_log.o
 .group         0x0000000000000000        0xc ./.obj/cli_log.o
 .group         0x0000000000000000        0xc ./.obj/cli_log.o
 .group         0x0000000000000000        0xc ./.obj/cli_log.o
 .group         0x0000000000000000        0xc ./.obj/cli_log.o
 .group         0x0000000000000000        0xc ./.obj/cli_log.o
 .group         0x0000000000000000        0xc ./.obj/cli_log.o
 .group         0x0000000000000000        0xc ./.obj/cli_log.o
 .group         0x0000000000000000        0xc ./.obj/cli_log.o
 .group         0x0000000000000000        0xc ./.obj/cli_log.o
 .text          0x0000000000000000        0x0 ./.obj/cli_log.o
 .data          0x0000000000000000        0x0 ./.obj/cli_log.o
 .bss           0x0000000000000000        0x0 ./.obj/cli_log.o
 .text.CLI_LogCmdGet
                0x0000000000000000       0x18 ./.obj/cli_log.o
 .debug_macro   0x0000000000000000      0xa78 ./.obj/cli_log.o
 .debug_macro   0x0000000000000000       0x22 ./.obj/cli_log.o
 .debug_macro   0x0000000000000000      0x34e ./.obj/cli_log.o
 .debug_macro   0x0000000000000000       0x18 ./.obj/cli_log.o
 .debug_macro   0x0000000000000000       0x22 ./.obj/cli_log.o
 .debug_macro   0x0000000000000000       0x52 ./.obj/cli_log.o
 .debug_macro   0x0000000000000000       0x5c ./.obj/cli_log.o
 .debug_macro   0x0000000000000000       0x35 ./.obj/cli_log.o
 .debug_macro   0x0000000000000000       0x34 ./.obj/cli_log.o
 .debug_macro   0x0000000000000000       0x16 ./.obj/cli_log.o
 .debug_macro   0x0000000000000000      0x10e ./.obj/cli_log.o
 .debug_macro   0x0000000000000000       0x8d ./.obj/cli_log.o
 .debug_macro   0x0000000000000000       0x16 ./.obj/cli_log.o
 .debug_macro   0x0000000000000000       0x43 ./.obj/cli_log.o
 .debug_macro   0x0000000000000000       0x57 ./.obj/cli_log.o
 .debug_macro   0x0000000000000000       0x34 ./.obj/cli_log.o
 .debug_macro   0x0000000000000000       0x10 ./.obj/cli_log.o
 .debug_macro   0x0000000000000000       0x52 ./.obj/cli_log.o
 .debug_macro   0x0000000000000000      0x182 ./.obj/cli_log.o
 .debug_macro   0x0000000000000000      0x333 ./.obj/cli_log.o
 .debug_macro   0x0000000000000000       0x22 ./.obj/cli_log.o
 .debug_macro   0x0000000000000000       0x10 ./.obj/cli_log.o
 .debug_macro   0x0000000000000000       0xe2 ./.obj/cli_log.o
 .debug_macro   0x0000000000000000       0x1c ./.obj/cli_log.o
 .debug_macro   0x0000000000000000       0x35 ./.obj/cli_log.o
 .debug_macro   0x0000000000000000       0x10 ./.obj/cli_log.o
 .debug_macro   0x0000000000000000       0x10 ./.obj/cli_log.o
 .debug_macro   0x0000000000000000       0x6a ./.obj/cli_log.o
 .debug_macro   0x0000000000000000       0xb2 ./.obj/cli_log.o
 .debug_macro   0x0000000000000000       0x16 ./.obj/cli_log.o
 .debug_macro   0x0000000000000000      0x129 ./.obj/cli_log.o
 .debug_macro   0x0000000000000000       0x34 ./.obj/cli_log.o
 .debug_macro   0x0000000000000000       0x10 ./.obj/cli_log.o
 .debug_macro   0x0000000000000000       0x3c ./.obj/cli_log.o
 .debug_macro   0x0000000000000000       0x10 ./.obj/cli_log.o
 .debug_macro   0x0000000000000000       0x16 ./.obj/cli_log.o
 .debug_macro   0x0000000000000000       0x10 ./.obj/cli_log.o
 .group         0x0000000000000000        0xc ./.obj/cli_time.o
 .group         0x0000000000000000        0xc ./.obj/cli_time.o
 .group         0x0000000000000000        0xc ./.obj/cli_time.o
 .group         0x0000000000000000        0xc ./.obj/cli_time.o
 .group         0x0000000000000000        0xc ./.obj/cli_time.o
 .group         0x0000000000000000        0xc ./.obj/cli_time.o
 .group         0x0000000000000000        0xc ./.obj/cli_time.o
 .group         0x0000000000000000        0xc ./.obj/cli_time.o
 .group         0x0000000000000000        0xc ./.obj/cli_time.o
 .group         0x0000000000000000        0xc ./.obj/cli_time.o
 .group         0x0000000000000000        0xc ./.obj/cli_time.o
 .group         0x0000000000000000        0xc ./.obj/cli_time.o
 .group         0x0000000000000000        0xc ./.obj/cli_time.o
 .group         0x0000000000000000        0xc ./.obj/cli_time.o
 .group         0x0000000000000000        0xc ./.obj/cli_time.o
 .group         0x0000000000000000        0xc ./.obj/cli_time.o
 .group         0x0000000000000000        0xc ./.obj/cli_time.o
 .group         0x0000000000000000        0xc ./.obj/cli_time.o
 .group         0x0000000000000000        0xc ./.obj/cli_time.o
 .group         0x0000000000000000        0xc ./.obj/cli_time.o
 .group         0x0000000000000000        0xc ./.obj/cli_time.o
 .group         0x0000000000000000        0xc ./.obj/cli_time.o
 .group         0x0000000000000000        0xc ./.obj/cli_time.o
 .group         0x0000000000000000        0xc ./.obj/cli_time.o
 .group         0x0000000000000000        0xc ./.obj/cli_time.o
 .group         0x0000000000000000        0xc ./.obj/cli_time.o
 .group         0x0000000000000000        0xc ./.obj/cli_time.o
 .group         0x0000000000000000        0xc ./.obj/cli_time.o
 .group         0x0000000000000000        0xc ./.obj/cli_time.o
 .group         0x0000000000000000        0xc ./.obj/cli_time.o
 .group         0x0000000000000000        0xc ./.obj/cli_time.o
 .group         0x0000000000000000        0xc ./.obj/cli_time.o
 .group         0x0000000000000000        0xc ./.obj/cli_time.o
 .group         0x0000000000000000        0xc ./.obj/cli_time.o
 .group         0x0000000000000000        0xc ./.obj/cli_time.o
 .group         0x0000000000000000        0xc ./.obj/cli_time.o
 .text          0x0000000000000000        0x0 ./.obj/cli_time.o
 .data          0x0000000000000000        0x0 ./.obj/cli_time.o
 .bss           0x0000000000000000        0x0 ./.obj/cli_time.o
 .text.CLI_DelayMs
                0x0000000000000000       0x4c ./.obj/cli_time.o
 .text.CLI_DelayUs
                0x0000000000000000       0x16 ./.obj/cli_time.o
 .debug_macro   0x0000000000000000      0xa78 ./.obj/cli_time.o
 .debug_macro   0x0000000000000000       0x22 ./.obj/cli_time.o
 .debug_macro   0x0000000000000000      0x34e ./.obj/cli_time.o
 .debug_macro   0x0000000000000000       0x18 ./.obj/cli_time.o
 .debug_macro   0x0000000000000000       0x22 ./.obj/cli_time.o
 .debug_macro   0x0000000000000000       0x52 ./.obj/cli_time.o
 .debug_macro   0x0000000000000000       0x5c ./.obj/cli_time.o
 .debug_macro   0x0000000000000000       0x35 ./.obj/cli_time.o
 .debug_macro   0x0000000000000000       0x34 ./.obj/cli_time.o
 .debug_macro   0x0000000000000000       0x16 ./.obj/cli_time.o
 .debug_macro   0x0000000000000000      0x10e ./.obj/cli_time.o
 .debug_macro   0x0000000000000000       0x8d ./.obj/cli_time.o
 .debug_macro   0x0000000000000000       0x16 ./.obj/cli_time.o
 .debug_macro   0x0000000000000000       0x43 ./.obj/cli_time.o
 .debug_macro   0x0000000000000000       0x57 ./.obj/cli_time.o
 .debug_macro   0x0000000000000000       0x34 ./.obj/cli_time.o
 .debug_macro   0x0000000000000000       0x10 ./.obj/cli_time.o
 .debug_macro   0x0000000000000000       0x52 ./.obj/cli_time.o
 .debug_macro   0x0000000000000000      0x182 ./.obj/cli_time.o
 .debug_macro   0x0000000000000000      0x333 ./.obj/cli_time.o
 .debug_macro   0x0000000000000000       0x22 ./.obj/cli_time.o
 .debug_macro   0x0000000000000000       0x10 ./.obj/cli_time.o
 .debug_macro   0x0000000000000000       0xe2 ./.obj/cli_time.o
 .debug_macro   0x0000000000000000       0x1c ./.obj/cli_time.o
 .debug_macro   0x0000000000000000       0x35 ./.obj/cli_time.o
 .debug_macro   0x0000000000000000       0x10 ./.obj/cli_time.o
 .debug_macro   0x0000000000000000       0x10 ./.obj/cli_time.o
 .debug_macro   0x0000000000000000       0x6a ./.obj/cli_time.o
 .debug_macro   0x0000000000000000       0xb2 ./.obj/cli_time.o
 .debug_macro   0x0000000000000000       0x16 ./.obj/cli_time.o
 .debug_macro   0x0000000000000000      0x129 ./.obj/cli_time.o
 .debug_macro   0x0000000000000000       0x34 ./.obj/cli_time.o
 .debug_macro   0x0000000000000000       0x10 ./.obj/cli_time.o
 .debug_macro   0x0000000000000000       0x3c ./.obj/cli_time.o
 .debug_macro   0x0000000000000000       0x10 ./.obj/cli_time.o
 .debug_macro   0x0000000000000000       0x16 ./.obj/cli_time.o
 .group         0x0000000000000000        0xc ./.obj/terminal.o
 .group         0x0000000000000000        0xc ./.obj/terminal.o
 .group         0x0000000000000000        0xc ./.obj/terminal.o
 .group         0x0000000000000000        0xc ./.obj/terminal.o
 .group         0x0000000000000000        0xc ./.obj/terminal.o
 .group         0x0000000000000000        0xc ./.obj/terminal.o
 .group         0x0000000000000000        0xc ./.obj/terminal.o
 .group         0x0000000000000000        0xc ./.obj/terminal.o
 .group         0x0000000000000000        0xc ./.obj/terminal.o
 .group         0x0000000000000000        0xc ./.obj/terminal.o
 .group         0x0000000000000000        0xc ./.obj/terminal.o
 .group         0x0000000000000000        0xc ./.obj/terminal.o
 .group         0x0000000000000000        0xc ./.obj/terminal.o
 .group         0x0000000000000000        0xc ./.obj/terminal.o
 .group         0x0000000000000000        0xc ./.obj/terminal.o
 .group         0x0000000000000000        0xc ./.obj/terminal.o
 .group         0x0000000000000000        0xc ./.obj/terminal.o
 .group         0x0000000000000000        0xc ./.obj/terminal.o
 .group         0x0000000000000000        0xc ./.obj/terminal.o
 .group         0x0000000000000000        0xc ./.obj/terminal.o
 .group         0x0000000000000000        0xc ./.obj/terminal.o
 .group         0x0000000000000000        0xc ./.obj/terminal.o
 .group         0x0000000000000000        0xc ./.obj/terminal.o
 .group         0x0000000000000000        0xc ./.obj/terminal.o
 .group         0x0000000000000000        0xc ./.obj/terminal.o
 .group         0x0000000000000000        0xc ./.obj/terminal.o
 .group         0x0000000000000000        0xc ./.obj/terminal.o
 .group         0x0000000000000000        0xc ./.obj/terminal.o
 .group         0x0000000000000000        0xc ./.obj/terminal.o
 .group         0x0000000000000000        0xc ./.obj/terminal.o
 .group         0x0000000000000000        0xc ./.obj/terminal.o
 .group         0x0000000000000000        0xc ./.obj/terminal.o
 .group         0x0000000000000000        0xc ./.obj/terminal.o
 .group         0x0000000000000000        0xc ./.obj/terminal.o
 .group         0x0000000000000000        0xc ./.obj/terminal.o
 .group         0x0000000000000000        0xc ./.obj/terminal.o
 .group         0x0000000000000000        0xc ./.obj/terminal.o
 .group         0x0000000000000000        0xc ./.obj/terminal.o
 .text          0x0000000000000000        0x0 ./.obj/terminal.o
 .data          0x0000000000000000        0x0 ./.obj/terminal.o
 .bss           0x0000000000000000        0x0 ./.obj/terminal.o
 .text.CLI_GetArgDecByFlag
                0x0000000000000000       0x2c ./.obj/terminal.o
 .text.CLI_IsArgFlag
                0x0000000000000000        0xe ./.obj/terminal.o
 .text.CLI_PrintTimeWithoutRN
                0x0000000000000000        0x4 ./.obj/terminal.o
 .debug_macro   0x0000000000000000      0xa78 ./.obj/terminal.o
 .debug_macro   0x0000000000000000       0x22 ./.obj/terminal.o
 .debug_macro   0x0000000000000000      0x34e ./.obj/terminal.o
 .debug_macro   0x0000000000000000       0x18 ./.obj/terminal.o
 .debug_macro   0x0000000000000000       0x22 ./.obj/terminal.o
 .debug_macro   0x0000000000000000       0x52 ./.obj/terminal.o
 .debug_macro   0x0000000000000000       0x5c ./.obj/terminal.o
 .debug_macro   0x0000000000000000       0x35 ./.obj/terminal.o
 .debug_macro   0x0000000000000000       0x34 ./.obj/terminal.o
 .debug_macro   0x0000000000000000       0x16 ./.obj/terminal.o
 .debug_macro   0x0000000000000000      0x10e ./.obj/terminal.o
 .debug_macro   0x0000000000000000       0x8d ./.obj/terminal.o
 .debug_macro   0x0000000000000000       0x16 ./.obj/terminal.o
 .debug_macro   0x0000000000000000       0x43 ./.obj/terminal.o
 .debug_macro   0x0000000000000000       0x57 ./.obj/terminal.o
 .debug_macro   0x0000000000000000       0x34 ./.obj/terminal.o
 .debug_macro   0x0000000000000000       0x10 ./.obj/terminal.o
 .debug_macro   0x0000000000000000       0x52 ./.obj/terminal.o
 .debug_macro   0x0000000000000000      0x182 ./.obj/terminal.o
 .debug_macro   0x0000000000000000      0x333 ./.obj/terminal.o
 .debug_macro   0x0000000000000000       0x22 ./.obj/terminal.o
 .debug_macro   0x0000000000000000       0x10 ./.obj/terminal.o
 .debug_macro   0x0000000000000000       0xe2 ./.obj/terminal.o
 .debug_macro   0x0000000000000000       0x1c ./.obj/terminal.o
 .debug_macro   0x0000000000000000       0x35 ./.obj/terminal.o
 .debug_macro   0x0000000000000000       0x10 ./.obj/terminal.o
 .debug_macro   0x0000000000000000       0x10 ./.obj/terminal.o
 .debug_macro   0x0000000000000000       0x6a ./.obj/terminal.o
 .debug_macro   0x0000000000000000       0xb2 ./.obj/terminal.o
 .debug_macro   0x0000000000000000       0x16 ./.obj/terminal.o
 .debug_macro   0x0000000000000000      0x129 ./.obj/terminal.o
 .debug_macro   0x0000000000000000       0x34 ./.obj/terminal.o
 .debug_macro   0x0000000000000000       0x10 ./.obj/terminal.o
 .debug_macro   0x0000000000000000       0x3c ./.obj/terminal.o
 .debug_macro   0x0000000000000000       0x10 ./.obj/terminal.o
 .debug_macro   0x0000000000000000       0x16 ./.obj/terminal.o
 .debug_macro   0x0000000000000000       0x10 ./.obj/terminal.o
 .group         0x0000000000000000        0xc ./.obj/my_test_commands.o
 .group         0x0000000000000000        0xc ./.obj/my_test_commands.o
 .group         0x0000000000000000        0xc ./.obj/my_test_commands.o
 .group         0x0000000000000000        0xc ./.obj/my_test_commands.o
 .group         0x0000000000000000        0xc ./.obj/my_test_commands.o
 .group         0x0000000000000000        0xc ./.obj/my_test_commands.o
 .group         0x0000000000000000        0xc ./.obj/my_test_commands.o
 .group         0x0000000000000000        0xc ./.obj/my_test_commands.o
 .group         0x0000000000000000        0xc ./.obj/my_test_commands.o
 .group         0x0000000000000000        0xc ./.obj/my_test_commands.o
 .group         0x0000000000000000        0xc ./.obj/my_test_commands.o
 .group         0x0000000000000000        0xc ./.obj/my_test_commands.o
 .group         0x0000000000000000        0xc ./.obj/my_test_commands.o
 .group         0x0000000000000000        0xc ./.obj/my_test_commands.o
 .group         0x0000000000000000        0xc ./.obj/my_test_commands.o
 .group         0x0000000000000000        0xc ./.obj/my_test_commands.o
 .group         0x0000000000000000        0xc ./.obj/my_test_commands.o
 .group         0x0000000000000000        0xc ./.obj/my_test_commands.o
 .group         0x0000000000000000        0xc ./.obj/my_test_commands.o
 .group         0x0000000000000000        0xc ./.obj/my_test_commands.o
 .group         0x0000000000000000        0xc ./.obj/my_test_commands.o
 .group         0x0000000000000000        0xc ./.obj/my_test_commands.o
 .group         0x0000000000000000        0xc ./.obj/my_test_commands.o
 .group         0x0000000000000000        0xc ./.obj/my_test_commands.o
 .group         0x0000000000000000        0xc ./.obj/my_test_commands.o
 .group         0x0000000000000000        0xc ./.obj/my_test_commands.o
 .group         0x0000000000000000        0xc ./.obj/my_test_commands.o
 .group         0x0000000000000000        0xc ./.obj/my_test_commands.o
 .group         0x0000000000000000        0xc ./.obj/my_test_commands.o
 .group         0x0000000000000000        0xc ./.obj/my_test_commands.o
 .group         0x0000000000000000        0xc ./.obj/my_test_commands.o
 .group         0x0000000000000000        0xc ./.obj/my_test_commands.o
 .group         0x0000000000000000        0xc ./.obj/my_test_commands.o
 .group         0x0000000000000000        0xc ./.obj/my_test_commands.o
 .group         0x0000000000000000        0xc ./.obj/my_test_commands.o
 .group         0x0000000000000000        0xc ./.obj/my_test_commands.o
 .group         0x0000000000000000        0xc ./.obj/my_test_commands.o
 .text          0x0000000000000000        0x0 ./.obj/my_test_commands.o
 .data          0x0000000000000000        0x0 ./.obj/my_test_commands.o
 .bss           0x0000000000000000        0x0 ./.obj/my_test_commands.o
 .debug_macro   0x0000000000000000      0xa78 ./.obj/my_test_commands.o
 .debug_macro   0x0000000000000000       0x22 ./.obj/my_test_commands.o
 .debug_macro   0x0000000000000000      0x34e ./.obj/my_test_commands.o
 .debug_macro   0x0000000000000000       0x18 ./.obj/my_test_commands.o
 .debug_macro   0x0000000000000000       0x22 ./.obj/my_test_commands.o
 .debug_macro   0x0000000000000000       0x52 ./.obj/my_test_commands.o
 .debug_macro   0x0000000000000000       0x5c ./.obj/my_test_commands.o
 .debug_macro   0x0000000000000000       0x35 ./.obj/my_test_commands.o
 .debug_macro   0x0000000000000000       0x34 ./.obj/my_test_commands.o
 .debug_macro   0x0000000000000000       0x16 ./.obj/my_test_commands.o
 .debug_macro   0x0000000000000000      0x10e ./.obj/my_test_commands.o
 .debug_macro   0x0000000000000000       0x8d ./.obj/my_test_commands.o
 .debug_macro   0x0000000000000000       0x16 ./.obj/my_test_commands.o
 .debug_macro   0x0000000000000000       0x43 ./.obj/my_test_commands.o
 .debug_macro   0x0000000000000000       0x57 ./.obj/my_test_commands.o
 .debug_macro   0x0000000000000000       0x34 ./.obj/my_test_commands.o
 .debug_macro   0x0000000000000000       0x10 ./.obj/my_test_commands.o
 .debug_macro   0x0000000000000000       0x52 ./.obj/my_test_commands.o
 .debug_macro   0x0000000000000000      0x182 ./.obj/my_test_commands.o
 .debug_macro   0x0000000000000000      0x333 ./.obj/my_test_commands.o
 .debug_macro   0x0000000000000000       0x22 ./.obj/my_test_commands.o
 .debug_macro   0x0000000000000000       0x10 ./.obj/my_test_commands.o
 .debug_macro   0x0000000000000000       0xe2 ./.obj/my_test_commands.o
 .debug_macro   0x0000000000000000       0x1c ./.obj/my_test_commands.o
 .debug_macro   0x0000000000000000       0x35 ./.obj/my_test_commands.o
 .debug_macro   0x0000000000000000       0x10 ./.obj/my_test_commands.o
 .debug_macro   0x0000000000000000       0x10 ./.obj/my_test_commands.o
 .debug_macro   0x0000000000000000       0x6a ./.obj/my_test_commands.o
 .debug_macro   0x0000000000000000       0xb2 ./.obj/my_test_commands.o
 .debug_macro   0x0000000000000000       0x16 ./.obj/my_test_commands.o
 .debug_macro   0x0000000000000000      0x129 ./.obj/my_test_commands.o
 .debug_macro   0x0000000000000000       0x34 ./.obj/my_test_commands.o
 .debug_macro   0x0000000000000000       0x10 ./.obj/my_test_commands.o
 .debug_macro   0x0000000000000000       0x3c ./.obj/my_test_commands.o
 .debug_macro   0x0000000000000000       0x10 ./.obj/my_test_commands.o
 .debug_macro   0x0000000000000000       0x16 ./.obj/my_test_commands.o
 .group         0x0000000000000000        0xc ./libopencm3/lib/libopencm3_stm32f4.a(gpio_common_f0234.o)
 .group         0x0000000000000000        0xc ./libopencm3/lib/libopencm3_stm32f4.a(gpio_common_f0234.o)
 .group         0x0000000000000000        0xc ./libopencm3/lib/libopencm3_stm32f4.a(gpio_common_f0234.o)
 .group         0x0000000000000000        0xc ./libopencm3/lib/libopencm3_stm32f4.a(gpio_common_f0234.o)
 .group         0x0000000000000000        0xc ./libopencm3/lib/libopencm3_stm32f4.a(gpio_common_f0234.o)
 .group         0x0000000000000000        0xc ./libopencm3/lib/libopencm3_stm32f4.a(gpio_common_f0234.o)
 .group         0x0000000000000000        0xc ./libopencm3/lib/libopencm3_stm32f4.a(gpio_common_f0234.o)
 .group         0x0000000000000000        0xc ./libopencm3/lib/libopencm3_stm32f4.a(gpio_common_f0234.o)
 .group         0x0000000000000000        0xc ./libopencm3/lib/libopencm3_stm32f4.a(gpio_common_f0234.o)
 .group         0x0000000000000000        0xc ./libopencm3/lib/libopencm3_stm32f4.a(gpio_common_f0234.o)
 .text          0x0000000000000000        0x0 ./libopencm3/lib/libopencm3_stm32f4.a(gpio_common_f0234.o)
 .data          0x0000000000000000        0x0 ./libopencm3/lib/libopencm3_stm32f4.a(gpio_common_f0234.o)
 .bss           0x0000000000000000        0x0 ./libopencm3/lib/libopencm3_stm32f4.a(gpio_common_f0234.o)
 .text.gpio_set_output_options
                0x0000000000000000       0x36 ./libopencm3/lib/libopencm3_stm32f4.a(gpio_common_f0234.o)
 .debug_macro   0x0000000000000000       0x1c ./libopencm3/lib/libopencm3_stm32f4.a(gpio_common_f0234.o)
 .debug_macro   0x0000000000000000      0x34e ./libopencm3/lib/libopencm3_stm32f4.a(gpio_common_f0234.o)
 .debug_macro   0x0000000000000000       0x22 ./libopencm3/lib/libopencm3_stm32f4.a(gpio_common_f0234.o)
 .debug_macro   0x0000000000000000       0xe8 ./libopencm3/lib/libopencm3_stm32f4.a(gpio_common_f0234.o)
 .debug_macro   0x0000000000000000       0x76 ./libopencm3/lib/libopencm3_stm32f4.a(gpio_common_f0234.o)
 .debug_macro   0x0000000000000000      0x280 ./libopencm3/lib/libopencm3_stm32f4.a(gpio_common_f0234.o)
 .debug_macro   0x0000000000000000       0x76 ./libopencm3/lib/libopencm3_stm32f4.a(gpio_common_f0234.o)
 .debug_macro   0x0000000000000000      0x37e ./libopencm3/lib/libopencm3_stm32f4.a(gpio_common_f0234.o)
 .debug_macro   0x0000000000000000       0xca ./libopencm3/lib/libopencm3_stm32f4.a(gpio_common_f0234.o)
 .group         0x0000000000000000        0xc ./libopencm3/lib/libopencm3_stm32f4.a(rcc_common_all.o)
 .group         0x0000000000000000        0xc ./libopencm3/lib/libopencm3_stm32f4.a(rcc_common_all.o)
 .group         0x0000000000000000        0xc ./libopencm3/lib/libopencm3_stm32f4.a(rcc_common_all.o)
 .group         0x0000000000000000        0xc ./libopencm3/lib/libopencm3_stm32f4.a(rcc_common_all.o)
 .group         0x0000000000000000        0xc ./libopencm3/lib/libopencm3_stm32f4.a(rcc_common_all.o)
 .group         0x0000000000000000        0xc ./libopencm3/lib/libopencm3_stm32f4.a(rcc_common_all.o)
 .group         0x0000000000000000        0xc ./libopencm3/lib/libopencm3_stm32f4.a(rcc_common_all.o)
 .group         0x0000000000000000        0xc ./libopencm3/lib/libopencm3_stm32f4.a(rcc_common_all.o)
 .group         0x0000000000000000        0xc ./libopencm3/lib/libopencm3_stm32f4.a(rcc_common_all.o)
 .group         0x0000000000000000        0xc ./libopencm3/lib/libopencm3_stm32f4.a(rcc_common_all.o)
 .text          0x0000000000000000        0x0 ./libopencm3/lib/libopencm3_stm32f4.a(rcc_common_all.o)
 .data          0x0000000000000000        0x0 ./libopencm3/lib/libopencm3_stm32f4.a(rcc_common_all.o)
 .bss           0x0000000000000000        0x0 ./libopencm3/lib/libopencm3_stm32f4.a(rcc_common_all.o)
 .text.rcc_peripheral_enable_clock
                0x0000000000000000        0x8 ./libopencm3/lib/libopencm3_stm32f4.a(rcc_common_all.o)
 .text.rcc_peripheral_disable_clock
                0x0000000000000000        0xa ./libopencm3/lib/libopencm3_stm32f4.a(rcc_common_all.o)
 .text.rcc_peripheral_reset
                0x0000000000000000        0x8 ./libopencm3/lib/libopencm3_stm32f4.a(rcc_common_all.o)
 .text.rcc_peripheral_clear_reset
                0x0000000000000000        0xa ./libopencm3/lib/libopencm3_stm32f4.a(rcc_common_all.o)
 .text.rcc_periph_clock_disable
                0x0000000000000000       0x1e ./libopencm3/lib/libopencm3_stm32f4.a(rcc_common_all.o)
 .text.rcc_periph_reset_hold
                0x0000000000000000        0x4 ./libopencm3/lib/libopencm3_stm32f4.a(rcc_common_all.o)
 .text.rcc_periph_reset_release
                0x0000000000000000        0x4 ./libopencm3/lib/libopencm3_stm32f4.a(rcc_common_all.o)
 .text.rcc_set_mco
                0x0000000000000000       0x18 ./libopencm3/lib/libopencm3_stm32f4.a(rcc_common_all.o)
 .text.rcc_osc_bypass_enable
                0x0000000000000000       0x30 ./libopencm3/lib/libopencm3_stm32f4.a(rcc_common_all.o)
 .text.rcc_osc_bypass_disable
                0x0000000000000000       0x30 ./libopencm3/lib/libopencm3_stm32f4.a(rcc_common_all.o)
 .text.rcc_get_div_from_hpre
                0x0000000000000000       0x1c ./libopencm3/lib/libopencm3_stm32f4.a(rcc_common_all.o)
 .debug_macro   0x0000000000000000      0xa6c ./libopencm3/lib/libopencm3_stm32f4.a(rcc_common_all.o)
 .debug_macro   0x0000000000000000       0x1c ./libopencm3/lib/libopencm3_stm32f4.a(rcc_common_all.o)
 .debug_macro   0x0000000000000000      0x34e ./libopencm3/lib/libopencm3_stm32f4.a(rcc_common_all.o)
 .debug_macro   0x0000000000000000       0x22 ./libopencm3/lib/libopencm3_stm32f4.a(rcc_common_all.o)
 .debug_macro   0x0000000000000000       0xe8 ./libopencm3/lib/libopencm3_stm32f4.a(rcc_common_all.o)
 .debug_macro   0x0000000000000000       0x76 ./libopencm3/lib/libopencm3_stm32f4.a(rcc_common_all.o)
 .debug_macro   0x0000000000000000      0x280 ./libopencm3/lib/libopencm3_stm32f4.a(rcc_common_all.o)
 .debug_macro   0x0000000000000000       0x8e ./libopencm3/lib/libopencm3_stm32f4.a(rcc_common_all.o)
 .debug_macro   0x0000000000000000       0x46 ./libopencm3/lib/libopencm3_stm32f4.a(rcc_common_all.o)
 .debug_macro   0x0000000000000000      0xcea ./libopencm3/lib/libopencm3_stm32f4.a(rcc_common_all.o)
 .group         0x0000000000000000        0xc ./libopencm3/lib/libopencm3_stm32f4.a(rcc.o)
 .group         0x0000000000000000        0xc ./libopencm3/lib/libopencm3_stm32f4.a(rcc.o)
 .group         0x0000000000000000        0xc ./libopencm3/lib/libopencm3_stm32f4.a(rcc.o)
 .group         0x0000000000000000        0xc ./libopencm3/lib/libopencm3_stm32f4.a(rcc.o)
 .group         0x0000000000000000        0xc ./libopencm3/lib/libopencm3_stm32f4.a(rcc.o)
 .group         0x0000000000000000        0xc ./libopencm3/lib/libopencm3_stm32f4.a(rcc.o)
 .group         0x0000000000000000        0xc ./libopencm3/lib/libopencm3_stm32f4.a(rcc.o)
 .group         0x0000000000000000        0xc ./libopencm3/lib/libopencm3_stm32f4.a(rcc.o)
 .group         0x0000000000000000        0xc ./libopencm3/lib/libopencm3_stm32f4.a(rcc.o)
 .group         0x0000000000000000        0xc ./libopencm3/lib/libopencm3_stm32f4.a(rcc.o)
 .group         0x0000000000000000        0xc ./libopencm3/lib/libopencm3_stm32f4.a(rcc.o)
 .group         0x0000000000000000        0xc ./libopencm3/lib/libopencm3_stm32f4.a(rcc.o)
 .group         0x0000000000000000        0xc ./libopencm3/lib/libopencm3_stm32f4.a(rcc.o)
 .group         0x0000000000000000        0xc ./libopencm3/lib/libopencm3_stm32f4.a(rcc.o)
 .text          0x0000000000000000        0x0 ./libopencm3/lib/libopencm3_stm32f4.a(rcc.o)
 .data          0x0000000000000000        0x0 ./libopencm3/lib/libopencm3_stm32f4.a(rcc.o)
 .bss           0x0000000000000000        0x0 ./libopencm3/lib/libopencm3_stm32f4.a(rcc.o)
 .text.rcc_osc_ready_int_clear
                0x0000000000000000       0x6c ./libopencm3/lib/libopencm3_stm32f4.a(rcc.o)
 .text.rcc_osc_ready_int_enable
                0x0000000000000000       0x6c ./libopencm3/lib/libopencm3_stm32f4.a(rcc.o)
 .text.rcc_osc_ready_int_disable
                0x0000000000000000       0x6c ./libopencm3/lib/libopencm3_stm32f4.a(rcc.o)
 .text.rcc_osc_ready_int_flag
                0x0000000000000000       0x6c ./libopencm3/lib/libopencm3_stm32f4.a(rcc.o)
 .text.rcc_css_int_clear
                0x0000000000000000       0x14 ./libopencm3/lib/libopencm3_stm32f4.a(rcc.o)
 .text.rcc_css_int_flag
                0x0000000000000000       0x10 ./libopencm3/lib/libopencm3_stm32f4.a(rcc.o)
 .text.rcc_wait_for_osc_ready
                0x0000000000000000       0x10 ./libopencm3/lib/libopencm3_stm32f4.a(rcc.o)
 .text.rcc_osc_off
                0x0000000000000000       0x74 ./libopencm3/lib/libopencm3_stm32f4.a(rcc.o)
 .text.rcc_css_enable
                0x0000000000000000       0x14 ./libopencm3/lib/libopencm3_stm32f4.a(rcc.o)
 .text.rcc_css_disable
                0x0000000000000000       0x14 ./libopencm3/lib/libopencm3_stm32f4.a(rcc.o)
 .text.rcc_plli2s_config
                0x0000000000000000       0x1c ./libopencm3/lib/libopencm3_stm32f4.a(rcc.o)
 .text.rcc_pllsai_config
                0x0000000000000000       0x2c ./libopencm3/lib/libopencm3_stm32f4.a(rcc.o)
 .text.rcc_pllsai_postscalers
                0x0000000000000000       0x28 ./libopencm3/lib/libopencm3_stm32f4.a(rcc.o)
 .text.rcc_set_pll_source
                0x0000000000000000       0x18 ./libopencm3/lib/libopencm3_stm32f4.a(rcc.o)
 .text.rcc_set_ppre2
                0x0000000000000000       0x18 ./libopencm3/lib/libopencm3_stm32f4.a(rcc.o)
 .text.rcc_set_ppre1
                0x0000000000000000       0x18 ./libopencm3/lib/libopencm3_stm32f4.a(rcc.o)
 .text.rcc_set_hpre
                0x0000000000000000       0x18 ./libopencm3/lib/libopencm3_stm32f4.a(rcc.o)
 .text.rcc_set_rtcpre
                0x0000000000000000       0x18 ./libopencm3/lib/libopencm3_stm32f4.a(rcc.o)
 .text.rcc_set_main_pll_hsi
                0x0000000000000000       0x44 ./libopencm3/lib/libopencm3_stm32f4.a(rcc.o)
 .text.rcc_set_main_pll_hse
                0x0000000000000000       0x44 ./libopencm3/lib/libopencm3_stm32f4.a(rcc.o)
 .text.rcc_system_clock_source
                0x0000000000000000       0x10 ./libopencm3/lib/libopencm3_stm32f4.a(rcc.o)
 .text.rcc_clock_setup_pll
                0x0000000000000000       0xe4 ./libopencm3/lib/libopencm3_stm32f4.a(rcc.o)
 .text.rcc_clock_setup_hse_3v3
                0x0000000000000000        0x4 ./libopencm3/lib/libopencm3_stm32f4.a(rcc.o)
 .text.rcc_get_timer_clk_freq
                0x0000000000000000       0x34 ./libopencm3/lib/libopencm3_stm32f4.a(rcc.o)
 .text.rcc_get_i2c_clk_freq
                0x0000000000000000        0xc ./libopencm3/lib/libopencm3_stm32f4.a(rcc.o)
 .text.rcc_get_spi_clk_freq
                0x0000000000000000       0x20 ./libopencm3/lib/libopencm3_stm32f4.a(rcc.o)
 .data.rcc_ahb_frequency
                0x0000000000000000        0x4 ./libopencm3/lib/libopencm3_stm32f4.a(rcc.o)
 .rodata.rcc_hse_12mhz_3v3
                0x0000000000000000       0x70 ./libopencm3/lib/libopencm3_stm32f4.a(rcc.o)
 .rodata.rcc_hse_16mhz_3v3
                0x0000000000000000       0x70 ./libopencm3/lib/libopencm3_stm32f4.a(rcc.o)
 .rodata.rcc_hse_25mhz_3v3
                0x0000000000000000       0x70 ./libopencm3/lib/libopencm3_stm32f4.a(rcc.o)
 .rodata.rcc_hse_8mhz_3v3
                0x0000000000000000       0x70 ./libopencm3/lib/libopencm3_stm32f4.a(rcc.o)
 .rodata.rcc_hsi_configs
                0x0000000000000000       0x70 ./libopencm3/lib/libopencm3_stm32f4.a(rcc.o)
 .debug_macro   0x0000000000000000      0xa6c ./libopencm3/lib/libopencm3_stm32f4.a(rcc.o)
 .debug_macro   0x0000000000000000       0x1c ./libopencm3/lib/libopencm3_stm32f4.a(rcc.o)
 .debug_macro   0x0000000000000000      0x34e ./libopencm3/lib/libopencm3_stm32f4.a(rcc.o)
 .debug_macro   0x0000000000000000       0x22 ./libopencm3/lib/libopencm3_stm32f4.a(rcc.o)
 .debug_macro   0x0000000000000000       0xe8 ./libopencm3/lib/libopencm3_stm32f4.a(rcc.o)
 .debug_macro   0x0000000000000000       0x76 ./libopencm3/lib/libopencm3_stm32f4.a(rcc.o)
 .debug_macro   0x0000000000000000      0x280 ./libopencm3/lib/libopencm3_stm32f4.a(rcc.o)
 .debug_macro   0x0000000000000000       0x8e ./libopencm3/lib/libopencm3_stm32f4.a(rcc.o)
 .debug_macro   0x0000000000000000       0x46 ./libopencm3/lib/libopencm3_stm32f4.a(rcc.o)
 .debug_macro   0x0000000000000000      0xcea ./libopencm3/lib/libopencm3_stm32f4.a(rcc.o)
 .group         0x0000000000000000        0xc ./libopencm3/lib/libopencm3_stm32f4.a(timer_common_all.o)
 .group         0x0000000000000000        0xc ./libopencm3/lib/libopencm3_stm32f4.a(timer_common_all.o)
 .group         0x0000000000000000        0xc ./libopencm3/lib/libopencm3_stm32f4.a(timer_common_all.o)
 .group         0x0000000000000000        0xc ./libopencm3/lib/libopencm3_stm32f4.a(timer_common_all.o)
 .group         0x0000000000000000        0xc ./libopencm3/lib/libopencm3_stm32f4.a(timer_common_all.o)
 .group         0x0000000000000000        0xc ./libopencm3/lib/libopencm3_stm32f4.a(timer_common_all.o)
 .group         0x0000000000000000        0xc ./libopencm3/lib/libopencm3_stm32f4.a(timer_common_all.o)
 .group         0x0000000000000000        0xc ./libopencm3/lib/libopencm3_stm32f4.a(timer_common_all.o)
 .group         0x0000000000000000        0xc ./libopencm3/lib/libopencm3_stm32f4.a(timer_common_all.o)
 .group         0x0000000000000000        0xc ./libopencm3/lib/libopencm3_stm32f4.a(timer_common_all.o)
 .group         0x0000000000000000        0xc ./libopencm3/lib/libopencm3_stm32f4.a(timer_common_all.o)
 .group         0x0000000000000000        0xc ./libopencm3/lib/libopencm3_stm32f4.a(timer_common_all.o)
 .text          0x0000000000000000        0x0 ./libopencm3/lib/libopencm3_stm32f4.a(timer_common_all.o)
 .data          0x0000000000000000        0x0 ./libopencm3/lib/libopencm3_stm32f4.a(timer_common_all.o)
 .bss           0x0000000000000000        0x0 ./libopencm3/lib/libopencm3_stm32f4.a(timer_common_all.o)
 .text.timer_disable_irq
                0x0000000000000000        0xa ./libopencm3/lib/libopencm3_stm32f4.a(timer_common_all.o)
 .text.timer_interrupt_source
                0x0000000000000000       0x16 ./libopencm3/lib/libopencm3_stm32f4.a(timer_common_all.o)
 .text.timer_get_flag
                0x0000000000000000        0xc ./libopencm3/lib/libopencm3_stm32f4.a(timer_common_all.o)
 .text.timer_set_clock_division
                0x0000000000000000       0x14 ./libopencm3/lib/libopencm3_stm32f4.a(timer_common_all.o)
 .text.timer_enable_preload
                0x0000000000000000        0xa ./libopencm3/lib/libopencm3_stm32f4.a(timer_common_all.o)
 .text.timer_set_alignment
                0x0000000000000000       0x14 ./libopencm3/lib/libopencm3_stm32f4.a(timer_common_all.o)
 .text.timer_direction_up
                0x0000000000000000        0xa ./libopencm3/lib/libopencm3_stm32f4.a(timer_common_all.o)
 .text.timer_direction_down
                0x0000000000000000        0xa ./libopencm3/lib/libopencm3_stm32f4.a(timer_common_all.o)
 .text.timer_one_shot_mode
                0x0000000000000000        0xa ./libopencm3/lib/libopencm3_stm32f4.a(timer_common_all.o)
 .text.timer_update_on_any
                0x0000000000000000        0xa ./libopencm3/lib/libopencm3_stm32f4.a(timer_common_all.o)
 .text.timer_update_on_overflow
                0x0000000000000000        0xa ./libopencm3/lib/libopencm3_stm32f4.a(timer_common_all.o)
 .text.timer_enable_update_event
                0x0000000000000000        0xa ./libopencm3/lib/libopencm3_stm32f4.a(timer_common_all.o)
 .text.timer_disable_update_event
                0x0000000000000000        0xa ./libopencm3/lib/libopencm3_stm32f4.a(timer_common_all.o)
 .text.timer_disable_counter
                0x0000000000000000        0xa ./libopencm3/lib/libopencm3_stm32f4.a(timer_common_all.o)
 .text.timer_set_output_idle_state
                0x0000000000000000        0xc ./libopencm3/lib/libopencm3_stm32f4.a(timer_common_all.o)
 .text.timer_reset_output_idle_state
                0x0000000000000000        0xe ./libopencm3/lib/libopencm3_stm32f4.a(timer_common_all.o)
 .text.timer_set_ti1_ch123_xor
                0x0000000000000000        0xa ./libopencm3/lib/libopencm3_stm32f4.a(timer_common_all.o)
 .text.timer_set_ti1_ch1
                0x0000000000000000        0xa ./libopencm3/lib/libopencm3_stm32f4.a(timer_common_all.o)
 .text.timer_set_master_mode
                0x0000000000000000       0x10 ./libopencm3/lib/libopencm3_stm32f4.a(timer_common_all.o)
 .text.timer_set_dma_on_compare_event
                0x0000000000000000        0xa ./libopencm3/lib/libopencm3_stm32f4.a(timer_common_all.o)
 .text.timer_set_dma_on_update_event
                0x0000000000000000        0xa ./libopencm3/lib/libopencm3_stm32f4.a(timer_common_all.o)
 .text.timer_enable_compare_control_update_on_trigger
                0x0000000000000000        0xa ./libopencm3/lib/libopencm3_stm32f4.a(timer_common_all.o)
 .text.timer_disable_compare_control_update_on_trigger
                0x0000000000000000        0xa ./libopencm3/lib/libopencm3_stm32f4.a(timer_common_all.o)
 .text.timer_enable_preload_complementry_enable_bits
                0x0000000000000000        0xa ./libopencm3/lib/libopencm3_stm32f4.a(timer_common_all.o)
 .text.timer_disable_preload_complementry_enable_bits
                0x0000000000000000        0xa ./libopencm3/lib/libopencm3_stm32f4.a(timer_common_all.o)
 .text.timer_set_repetition_counter
                0x0000000000000000        0x4 ./libopencm3/lib/libopencm3_stm32f4.a(timer_common_all.o)
 .text.timer_enable_oc_clear
                0x0000000000000000       0x34 ./libopencm3/lib/libopencm3_stm32f4.a(timer_common_all.o)
 .text.timer_disable_oc_clear
                0x0000000000000000       0x34 ./libopencm3/lib/libopencm3_stm32f4.a(timer_common_all.o)
 .text.timer_set_oc_fast_mode
                0x0000000000000000       0x34 ./libopencm3/lib/libopencm3_stm32f4.a(timer_common_all.o)
 .text.timer_set_oc_slow_mode
                0x0000000000000000       0x34 ./libopencm3/lib/libopencm3_stm32f4.a(timer_common_all.o)
 .text.timer_set_oc_mode
                0x0000000000000000      0x18c ./libopencm3/lib/libopencm3_stm32f4.a(timer_common_all.o)
 .text.timer_enable_oc_preload
                0x0000000000000000       0x34 ./libopencm3/lib/libopencm3_stm32f4.a(timer_common_all.o)
 .text.timer_disable_oc_preload
                0x0000000000000000       0x34 ./libopencm3/lib/libopencm3_stm32f4.a(timer_common_all.o)
 .text.timer_set_oc_polarity_high
                0x0000000000000000       0x4a ./libopencm3/lib/libopencm3_stm32f4.a(timer_common_all.o)
 .text.timer_set_oc_polarity_low
                0x0000000000000000       0x4a ./libopencm3/lib/libopencm3_stm32f4.a(timer_common_all.o)
 .text.timer_enable_oc_output
                0x0000000000000000       0x4a ./libopencm3/lib/libopencm3_stm32f4.a(timer_common_all.o)
 .text.timer_disable_oc_output
                0x0000000000000000       0x4a ./libopencm3/lib/libopencm3_stm32f4.a(timer_common_all.o)
 .text.timer_set_oc_idle_state_set
                0x0000000000000000       0x4a ./libopencm3/lib/libopencm3_stm32f4.a(timer_common_all.o)
 .text.timer_set_oc_idle_state_unset
                0x0000000000000000       0x4a ./libopencm3/lib/libopencm3_stm32f4.a(timer_common_all.o)
 .text.timer_set_oc_value
                0x0000000000000000       0x20 ./libopencm3/lib/libopencm3_stm32f4.a(timer_common_all.o)
 .text.timer_enable_break_main_output
                0x0000000000000000        0xa ./libopencm3/lib/libopencm3_stm32f4.a(timer_common_all.o)
 .text.timer_disable_break_main_output
                0x0000000000000000        0xa ./libopencm3/lib/libopencm3_stm32f4.a(timer_common_all.o)
 .text.timer_enable_break_automatic_output
                0x0000000000000000        0xa ./libopencm3/lib/libopencm3_stm32f4.a(timer_common_all.o)
 .text.timer_disable_break_automatic_output
                0x0000000000000000        0xa ./libopencm3/lib/libopencm3_stm32f4.a(timer_common_all.o)
 .text.timer_set_break_polarity_high
                0x0000000000000000        0xa ./libopencm3/lib/libopencm3_stm32f4.a(timer_common_all.o)
 .text.timer_set_break_polarity_low
                0x0000000000000000        0xa ./libopencm3/lib/libopencm3_stm32f4.a(timer_common_all.o)
 .text.timer_enable_break
                0x0000000000000000        0xa ./libopencm3/lib/libopencm3_stm32f4.a(timer_common_all.o)
 .text.timer_disable_break
                0x0000000000000000        0xa ./libopencm3/lib/libopencm3_stm32f4.a(timer_common_all.o)
 .text.timer_set_enabled_off_state_in_run_mode
                0x0000000000000000        0xa ./libopencm3/lib/libopencm3_stm32f4.a(timer_common_all.o)
 .text.timer_set_disabled_off_state_in_run_mode
                0x0000000000000000        0xa ./libopencm3/lib/libopencm3_stm32f4.a(timer_common_all.o)
 .text.timer_set_enabled_off_state_in_idle_mode
                0x0000000000000000        0xa ./libopencm3/lib/libopencm3_stm32f4.a(timer_common_all.o)
 .text.timer_set_disabled_off_state_in_idle_mode
                0x0000000000000000        0xa ./libopencm3/lib/libopencm3_stm32f4.a(timer_common_all.o)
 .text.timer_set_break_lock
                0x0000000000000000        0x8 ./libopencm3/lib/libopencm3_stm32f4.a(timer_common_all.o)
 .text.timer_set_deadtime
                0x0000000000000000        0x4 ./libopencm3/lib/libopencm3_stm32f4.a(timer_common_all.o)
 .text.timer_set_counter
                0x0000000000000000        0x4 ./libopencm3/lib/libopencm3_stm32f4.a(timer_common_all.o)
 .text.timer_ic_set_filter
                0x0000000000000000       0x50 ./libopencm3/lib/libopencm3_stm32f4.a(timer_common_all.o)
 .text.timer_ic_set_prescaler
                0x0000000000000000       0x50 ./libopencm3/lib/libopencm3_stm32f4.a(timer_common_all.o)
 .text.timer_ic_set_input
                0x0000000000000000       0x62 ./libopencm3/lib/libopencm3_stm32f4.a(timer_common_all.o)
 .text.timer_ic_enable
                0x0000000000000000       0x10 ./libopencm3/lib/libopencm3_stm32f4.a(timer_common_all.o)
 .text.timer_ic_disable
                0x0000000000000000       0x12 ./libopencm3/lib/libopencm3_stm32f4.a(timer_common_all.o)
 .text.timer_slave_set_filter
                0x0000000000000000       0x12 ./libopencm3/lib/libopencm3_stm32f4.a(timer_common_all.o)
 .text.timer_slave_set_prescaler
                0x0000000000000000       0x12 ./libopencm3/lib/libopencm3_stm32f4.a(timer_common_all.o)
 .text.timer_slave_set_polarity
                0x0000000000000000       0x12 ./libopencm3/lib/libopencm3_stm32f4.a(timer_common_all.o)
 .text.timer_slave_set_mode
                0x0000000000000000       0x10 ./libopencm3/lib/libopencm3_stm32f4.a(timer_common_all.o)
 .text.timer_slave_set_trigger
                0x0000000000000000       0x10 ./libopencm3/lib/libopencm3_stm32f4.a(timer_common_all.o)
 .text.timer_slave_set_extclockmode2
                0x0000000000000000       0x12 ./libopencm3/lib/libopencm3_stm32f4.a(timer_common_all.o)
 .debug_macro   0x0000000000000000      0xa6c ./libopencm3/lib/libopencm3_stm32f4.a(timer_common_all.o)
 .debug_macro   0x0000000000000000       0x1c ./libopencm3/lib/libopencm3_stm32f4.a(timer_common_all.o)
 .debug_macro   0x0000000000000000      0x34e ./libopencm3/lib/libopencm3_stm32f4.a(timer_common_all.o)
 .debug_macro   0x0000000000000000       0x22 ./libopencm3/lib/libopencm3_stm32f4.a(timer_common_all.o)
 .debug_macro   0x0000000000000000       0xe8 ./libopencm3/lib/libopencm3_stm32f4.a(timer_common_all.o)
 .debug_macro   0x0000000000000000       0x76 ./libopencm3/lib/libopencm3_stm32f4.a(timer_common_all.o)
 .debug_macro   0x0000000000000000      0x280 ./libopencm3/lib/libopencm3_stm32f4.a(timer_common_all.o)
 .debug_macro   0x0000000000000000      0xf7d ./libopencm3/lib/libopencm3_stm32f4.a(timer_common_all.o)
 .debug_macro   0x0000000000000000       0x52 ./libopencm3/lib/libopencm3_stm32f4.a(timer_common_all.o)
 .debug_macro   0x0000000000000000       0x8e ./libopencm3/lib/libopencm3_stm32f4.a(timer_common_all.o)
 .debug_macro   0x0000000000000000       0x46 ./libopencm3/lib/libopencm3_stm32f4.a(timer_common_all.o)
 .debug_macro   0x0000000000000000      0xcea ./libopencm3/lib/libopencm3_stm32f4.a(timer_common_all.o)
 .group         0x0000000000000000        0xc ./libopencm3/lib/libopencm3_stm32f4.a(usart_common_all.o)
 .group         0x0000000000000000        0xc ./libopencm3/lib/libopencm3_stm32f4.a(usart_common_all.o)
 .group         0x0000000000000000        0xc ./libopencm3/lib/libopencm3_stm32f4.a(usart_common_all.o)
 .group         0x0000000000000000        0xc ./libopencm3/lib/libopencm3_stm32f4.a(usart_common_all.o)
 .group         0x0000000000000000        0xc ./libopencm3/lib/libopencm3_stm32f4.a(usart_common_all.o)
 .group         0x0000000000000000        0xc ./libopencm3/lib/libopencm3_stm32f4.a(usart_common_all.o)
 .group         0x0000000000000000        0xc ./libopencm3/lib/libopencm3_stm32f4.a(usart_common_all.o)
 .group         0x0000000000000000        0xc ./libopencm3/lib/libopencm3_stm32f4.a(usart_common_all.o)
 .group         0x0000000000000000        0xc ./libopencm3/lib/libopencm3_stm32f4.a(usart_common_all.o)
 .group         0x0000000000000000        0xc ./libopencm3/lib/libopencm3_stm32f4.a(usart_common_all.o)
 .group         0x0000000000000000        0xc ./libopencm3/lib/libopencm3_stm32f4.a(usart_common_all.o)
 .group         0x0000000000000000        0xc ./libopencm3/lib/libopencm3_stm32f4.a(usart_common_all.o)
 .group         0x0000000000000000        0xc ./libopencm3/lib/libopencm3_stm32f4.a(usart_common_all.o)
 .text          0x0000000000000000        0x0 ./libopencm3/lib/libopencm3_stm32f4.a(usart_common_all.o)
 .data          0x0000000000000000        0x0 ./libopencm3/lib/libopencm3_stm32f4.a(usart_common_all.o)
 .bss           0x0000000000000000        0x0 ./libopencm3/lib/libopencm3_stm32f4.a(usart_common_all.o)
 .text.usart_get_databits
                0x0000000000000000        0xe ./libopencm3/lib/libopencm3_stm32f4.a(usart_common_all.o)
 .text.usart_get_stopbits
                0x0000000000000000        0x8 ./libopencm3/lib/libopencm3_stm32f4.a(usart_common_all.o)
 .text.usart_get_parity
                0x0000000000000000        0x8 ./libopencm3/lib/libopencm3_stm32f4.a(usart_common_all.o)
 .text.usart_disable
                0x0000000000000000        0xa ./libopencm3/lib/libopencm3_stm32f4.a(usart_common_all.o)
 .text.usart_recv_blocking
                0x0000000000000000       0x12 ./libopencm3/lib/libopencm3_stm32f4.a(usart_common_all.o)
 .text.usart_enable_rx_dma
                0x0000000000000000        0xa ./libopencm3/lib/libopencm3_stm32f4.a(usart_common_all.o)
 .text.usart_disable_rx_dma
                0x0000000000000000        0xa ./libopencm3/lib/libopencm3_stm32f4.a(usart_common_all.o)
 .text.usart_enable_tx_dma
                0x0000000000000000        0xa ./libopencm3/lib/libopencm3_stm32f4.a(usart_common_all.o)
 .text.usart_disable_tx_dma
                0x0000000000000000        0xa ./libopencm3/lib/libopencm3_stm32f4.a(usart_common_all.o)
 .text.usart_disable_rx_interrupt
                0x0000000000000000        0xa ./libopencm3/lib/libopencm3_stm32f4.a(usart_common_all.o)
 .text.usart_enable_tx_interrupt
                0x0000000000000000        0xa ./libopencm3/lib/libopencm3_stm32f4.a(usart_common_all.o)
 .text.usart_disable_tx_interrupt
                0x0000000000000000        0xa ./libopencm3/lib/libopencm3_stm32f4.a(usart_common_all.o)
 .text.usart_enable_tx_complete_interrupt
                0x0000000000000000        0xa ./libopencm3/lib/libopencm3_stm32f4.a(usart_common_all.o)
 .text.usart_disable_tx_complete_interrupt
                0x0000000000000000        0xa ./libopencm3/lib/libopencm3_stm32f4.a(usart_common_all.o)
 .text.usart_enable_idle_interrupt
                0x0000000000000000        0xa ./libopencm3/lib/libopencm3_stm32f4.a(usart_common_all.o)
 .text.usart_disable_idle_interrupt
                0x0000000000000000        0xa ./libopencm3/lib/libopencm3_stm32f4.a(usart_common_all.o)
 .text.usart_enable_error_interrupt
                0x0000000000000000        0xa ./libopencm3/lib/libopencm3_stm32f4.a(usart_common_all.o)
 .text.usart_disable_error_interrupt
                0x0000000000000000        0xa ./libopencm3/lib/libopencm3_stm32f4.a(usart_common_all.o)
 .debug_macro   0x0000000000000000      0xa6c ./libopencm3/lib/libopencm3_stm32f4.a(usart_common_all.o)
 .debug_macro   0x0000000000000000       0x1c ./libopencm3/lib/libopencm3_stm32f4.a(usart_common_all.o)
 .debug_macro   0x0000000000000000      0x34e ./libopencm3/lib/libopencm3_stm32f4.a(usart_common_all.o)
 .debug_macro   0x0000000000000000       0x22 ./libopencm3/lib/libopencm3_stm32f4.a(usart_common_all.o)
 .debug_macro   0x0000000000000000       0xe8 ./libopencm3/lib/libopencm3_stm32f4.a(usart_common_all.o)
 .debug_macro   0x0000000000000000       0x76 ./libopencm3/lib/libopencm3_stm32f4.a(usart_common_all.o)
 .debug_macro   0x0000000000000000      0x280 ./libopencm3/lib/libopencm3_stm32f4.a(usart_common_all.o)
 .debug_macro   0x0000000000000000       0x94 ./libopencm3/lib/libopencm3_stm32f4.a(usart_common_all.o)
 .debug_macro   0x0000000000000000      0x29e ./libopencm3/lib/libopencm3_stm32f4.a(usart_common_all.o)
 .debug_macro   0x0000000000000000       0xa0 ./libopencm3/lib/libopencm3_stm32f4.a(usart_common_all.o)
 .debug_macro   0x0000000000000000       0x8e ./libopencm3/lib/libopencm3_stm32f4.a(usart_common_all.o)
 .debug_macro   0x0000000000000000       0x46 ./libopencm3/lib/libopencm3_stm32f4.a(usart_common_all.o)
 .debug_macro   0x0000000000000000      0xcea ./libopencm3/lib/libopencm3_stm32f4.a(usart_common_all.o)
 .group         0x0000000000000000        0xc ./libopencm3/lib/libopencm3_stm32f4.a(usart_common_f124.o)
 .group         0x0000000000000000        0xc ./libopencm3/lib/libopencm3_stm32f4.a(usart_common_f124.o)
 .group         0x0000000000000000        0xc ./libopencm3/lib/libopencm3_stm32f4.a(usart_common_f124.o)
 .group         0x0000000000000000        0xc ./libopencm3/lib/libopencm3_stm32f4.a(usart_common_f124.o)
 .group         0x0000000000000000        0xc ./libopencm3/lib/libopencm3_stm32f4.a(usart_common_f124.o)
 .group         0x0000000000000000        0xc ./libopencm3/lib/libopencm3_stm32f4.a(usart_common_f124.o)
 .group         0x0000000000000000        0xc ./libopencm3/lib/libopencm3_stm32f4.a(usart_common_f124.o)
 .group         0x0000000000000000        0xc ./libopencm3/lib/libopencm3_stm32f4.a(usart_common_f124.o)
 .group         0x0000000000000000        0xc ./libopencm3/lib/libopencm3_stm32f4.a(usart_common_f124.o)
 .group         0x0000000000000000        0xc ./libopencm3/lib/libopencm3_stm32f4.a(usart_common_f124.o)
 .group         0x0000000000000000        0xc ./libopencm3/lib/libopencm3_stm32f4.a(usart_common_f124.o)
 .group         0x0000000000000000        0xc ./libopencm3/lib/libopencm3_stm32f4.a(usart_common_f124.o)
 .group         0x0000000000000000        0xc ./libopencm3/lib/libopencm3_stm32f4.a(usart_common_f124.o)
 .text          0x0000000000000000        0x0 ./libopencm3/lib/libopencm3_stm32f4.a(usart_common_f124.o)
 .data          0x0000000000000000        0x0 ./libopencm3/lib/libopencm3_stm32f4.a(usart_common_f124.o)
 .bss           0x0000000000000000        0x0 ./libopencm3/lib/libopencm3_stm32f4.a(usart_common_f124.o)
 .text.usart_wait_recv_ready
                0x0000000000000000        0x8 ./libopencm3/lib/libopencm3_stm32f4.a(usart_common_f124.o)
 .debug_macro   0x0000000000000000      0xa6c ./libopencm3/lib/libopencm3_stm32f4.a(usart_common_f124.o)
 .debug_macro   0x0000000000000000       0x1c ./libopencm3/lib/libopencm3_stm32f4.a(usart_common_f124.o)
 .debug_macro   0x0000000000000000      0x34e ./libopencm3/lib/libopencm3_stm32f4.a(usart_common_f124.o)
 .debug_macro   0x0000000000000000       0x22 ./libopencm3/lib/libopencm3_stm32f4.a(usart_common_f124.o)
 .debug_macro   0x0000000000000000       0xe8 ./libopencm3/lib/libopencm3_stm32f4.a(usart_common_f124.o)
 .debug_macro   0x0000000000000000       0x76 ./libopencm3/lib/libopencm3_stm32f4.a(usart_common_f124.o)
 .debug_macro   0x0000000000000000      0x280 ./libopencm3/lib/libopencm3_stm32f4.a(usart_common_f124.o)
 .debug_macro   0x0000000000000000       0x94 ./libopencm3/lib/libopencm3_stm32f4.a(usart_common_f124.o)
 .debug_macro   0x0000000000000000      0x29e ./libopencm3/lib/libopencm3_stm32f4.a(usart_common_f124.o)
 .debug_macro   0x0000000000000000       0xa0 ./libopencm3/lib/libopencm3_stm32f4.a(usart_common_f124.o)
 .debug_macro   0x0000000000000000       0x8e ./libopencm3/lib/libopencm3_stm32f4.a(usart_common_f124.o)
 .debug_macro   0x0000000000000000       0x46 ./libopencm3/lib/libopencm3_stm32f4.a(usart_common_f124.o)
 .debug_macro   0x0000000000000000      0xcea ./libopencm3/lib/libopencm3_stm32f4.a(usart_common_f124.o)
 .group         0x0000000000000000        0xc ./libopencm3/lib/libopencm3_stm32f4.a(vector.o)
 .group         0x0000000000000000        0xc ./libopencm3/lib/libopencm3_stm32f4.a(vector.o)
 .group         0x0000000000000000        0xc ./libopencm3/lib/libopencm3_stm32f4.a(vector.o)
 .group         0x0000000000000000        0xc ./libopencm3/lib/libopencm3_stm32f4.a(vector.o)
 .group         0x0000000000000000        0xc ./libopencm3/lib/libopencm3_stm32f4.a(vector.o)
 .group         0x0000000000000000        0xc ./libopencm3/lib/libopencm3_stm32f4.a(vector.o)
 .group         0x0000000000000000        0xc ./libopencm3/lib/libopencm3_stm32f4.a(vector.o)
 .group         0x0000000000000000        0xc ./libopencm3/lib/libopencm3_stm32f4.a(vector.o)
 .group         0x0000000000000000        0xc ./libopencm3/lib/libopencm3_stm32f4.a(vector.o)
 .text          0x0000000000000000        0x0 ./libopencm3/lib/libopencm3_stm32f4.a(vector.o)
 .data          0x0000000000000000        0x0 ./libopencm3/lib/libopencm3_stm32f4.a(vector.o)
 .bss           0x0000000000000000        0x0 ./libopencm3/lib/libopencm3_stm32f4.a(vector.o)
 .debug_macro   0x0000000000000000      0xa6c ./libopencm3/lib/libopencm3_stm32f4.a(vector.o)
 .debug_macro   0x0000000000000000       0x76 ./libopencm3/lib/libopencm3_stm32f4.a(vector.o)
 .debug_macro   0x0000000000000000       0x1c ./libopencm3/lib/libopencm3_stm32f4.a(vector.o)
 .debug_macro   0x0000000000000000      0x34e ./libopencm3/lib/libopencm3_stm32f4.a(vector.o)
 .debug_macro   0x0000000000000000       0x22 ./libopencm3/lib/libopencm3_stm32f4.a(vector.o)
 .debug_macro   0x0000000000000000       0xe8 ./libopencm3/lib/libopencm3_stm32f4.a(vector.o)
 .debug_macro   0x0000000000000000      0x452 ./libopencm3/lib/libopencm3_stm32f4.a(vector.o)
 .debug_macro   0x0000000000000000       0x6e ./libopencm3/lib/libopencm3_stm32f4.a(vector.o)
 .debug_macro   0x0000000000000000      0x22c ./libopencm3/lib/libopencm3_stm32f4.a(vector.o)
 .group         0x0000000000000000        0xc ./libopencm3/lib/libopencm3_stm32f4.a(scb.o)
 .group         0x0000000000000000        0xc ./libopencm3/lib/libopencm3_stm32f4.a(scb.o)
 .group         0x0000000000000000        0xc ./libopencm3/lib/libopencm3_stm32f4.a(scb.o)
 .group         0x0000000000000000        0xc ./libopencm3/lib/libopencm3_stm32f4.a(scb.o)
 .group         0x0000000000000000        0xc ./libopencm3/lib/libopencm3_stm32f4.a(scb.o)
 .group         0x0000000000000000        0xc ./libopencm3/lib/libopencm3_stm32f4.a(scb.o)
 .group         0x0000000000000000        0xc ./libopencm3/lib/libopencm3_stm32f4.a(scb.o)
 .group         0x0000000000000000        0xc ./libopencm3/lib/libopencm3_stm32f4.a(scb.o)
 .group         0x0000000000000000        0xc ./libopencm3/lib/libopencm3_stm32f4.a(scb.o)
 .group         0x0000000000000000        0xc ./libopencm3/lib/libopencm3_stm32f4.a(scb.o)
 .group         0x0000000000000000        0xc ./libopencm3/lib/libopencm3_stm32f4.a(scb.o)
 .group         0x0000000000000000        0xc ./libopencm3/lib/libopencm3_stm32f4.a(scb.o)
 .group         0x0000000000000000        0xc ./libopencm3/lib/libopencm3_stm32f4.a(scb.o)
 .group         0x0000000000000000        0xc ./libopencm3/lib/libopencm3_stm32f4.a(scb.o)
 .group         0x0000000000000000        0xc ./libopencm3/lib/libopencm3_stm32f4.a(scb.o)
 .group         0x0000000000000000        0xc ./libopencm3/lib/libopencm3_stm32f4.a(scb.o)
 .group         0x0000000000000000        0xc ./libopencm3/lib/libopencm3_stm32f4.a(scb.o)
 .group         0x0000000000000000        0xc ./libopencm3/lib/libopencm3_stm32f4.a(scb.o)
 .group         0x0000000000000000        0xc ./libopencm3/lib/libopencm3_stm32f4.a(scb.o)
 .group         0x0000000000000000        0xc ./libopencm3/lib/libopencm3_stm32f4.a(scb.o)
 .group         0x0000000000000000        0xc ./libopencm3/lib/libopencm3_stm32f4.a(scb.o)
 .group         0x0000000000000000        0xc ./libopencm3/lib/libopencm3_stm32f4.a(scb.o)
 .group         0x0000000000000000        0xc ./libopencm3/lib/libopencm3_stm32f4.a(scb.o)
 .group         0x0000000000000000        0xc ./libopencm3/lib/libopencm3_stm32f4.a(scb.o)
 .group         0x0000000000000000        0xc ./libopencm3/lib/libopencm3_stm32f4.a(scb.o)
 .text          0x0000000000000000        0x0 ./libopencm3/lib/libopencm3_stm32f4.a(scb.o)
 .data          0x0000000000000000        0x0 ./libopencm3/lib/libopencm3_stm32f4.a(scb.o)
 .bss           0x0000000000000000        0x0 ./libopencm3/lib/libopencm3_stm32f4.a(scb.o)
 .text.scb_reset_core
                0x0000000000000000       0x10 ./libopencm3/lib/libopencm3_stm32f4.a(scb.o)
 .text.scb_set_priority_grouping
                0x0000000000000000       0x12 ./libopencm3/lib/libopencm3_stm32f4.a(scb.o)
 .debug_macro   0x0000000000000000      0xa6c ./libopencm3/lib/libopencm3_stm32f4.a(scb.o)
 .debug_macro   0x0000000000000000       0x18 ./libopencm3/lib/libopencm3_stm32f4.a(scb.o)
 .debug_macro   0x0000000000000000       0x22 ./libopencm3/lib/libopencm3_stm32f4.a(scb.o)
 .debug_macro   0x0000000000000000       0x52 ./libopencm3/lib/libopencm3_stm32f4.a(scb.o)
 .debug_macro   0x0000000000000000       0x35 ./libopencm3/lib/libopencm3_stm32f4.a(scb.o)
 .debug_macro   0x0000000000000000       0x34 ./libopencm3/lib/libopencm3_stm32f4.a(scb.o)
 .debug_macro   0x0000000000000000       0x16 ./libopencm3/lib/libopencm3_stm32f4.a(scb.o)
 .debug_macro   0x0000000000000000      0x10e ./libopencm3/lib/libopencm3_stm32f4.a(scb.o)
 .debug_macro   0x0000000000000000       0x16 ./libopencm3/lib/libopencm3_stm32f4.a(scb.o)
 .debug_macro   0x0000000000000000       0x43 ./libopencm3/lib/libopencm3_stm32f4.a(scb.o)
 .debug_macro   0x0000000000000000       0x57 ./libopencm3/lib/libopencm3_stm32f4.a(scb.o)
 .debug_macro   0x0000000000000000       0x34 ./libopencm3/lib/libopencm3_stm32f4.a(scb.o)
 .debug_macro   0x0000000000000000       0x10 ./libopencm3/lib/libopencm3_stm32f4.a(scb.o)
 .debug_macro   0x0000000000000000       0x52 ./libopencm3/lib/libopencm3_stm32f4.a(scb.o)
 .debug_macro   0x0000000000000000      0x182 ./libopencm3/lib/libopencm3_stm32f4.a(scb.o)
 .debug_macro   0x0000000000000000       0x22 ./libopencm3/lib/libopencm3_stm32f4.a(scb.o)
 .debug_macro   0x0000000000000000       0x76 ./libopencm3/lib/libopencm3_stm32f4.a(scb.o)
 .debug_macro   0x0000000000000000       0x1c ./libopencm3/lib/libopencm3_stm32f4.a(scb.o)
 .debug_macro   0x0000000000000000      0x34e ./libopencm3/lib/libopencm3_stm32f4.a(scb.o)
 .debug_macro   0x0000000000000000       0x22 ./libopencm3/lib/libopencm3_stm32f4.a(scb.o)
 .debug_macro   0x0000000000000000       0xe8 ./libopencm3/lib/libopencm3_stm32f4.a(scb.o)
 .debug_macro   0x0000000000000000      0x452 ./libopencm3/lib/libopencm3_stm32f4.a(scb.o)
 .group         0x0000000000000000        0xc ./libopencm3/lib/libopencm3_stm32f4.a(nvic.o)
 .group         0x0000000000000000        0xc ./libopencm3/lib/libopencm3_stm32f4.a(nvic.o)
 .group         0x0000000000000000        0xc ./libopencm3/lib/libopencm3_stm32f4.a(nvic.o)
 .group         0x0000000000000000        0xc ./libopencm3/lib/libopencm3_stm32f4.a(nvic.o)
 .group         0x0000000000000000        0xc ./libopencm3/lib/libopencm3_stm32f4.a(nvic.o)
 .group         0x0000000000000000        0xc ./libopencm3/lib/libopencm3_stm32f4.a(nvic.o)
 .group         0x0000000000000000        0xc ./libopencm3/lib/libopencm3_stm32f4.a(nvic.o)
 .group         0x0000000000000000        0xc ./libopencm3/lib/libopencm3_stm32f4.a(nvic.o)
 .group         0x0000000000000000        0xc ./libopencm3/lib/libopencm3_stm32f4.a(nvic.o)
 .text          0x0000000000000000        0x0 ./libopencm3/lib/libopencm3_stm32f4.a(nvic.o)
 .data          0x0000000000000000        0x0 ./libopencm3/lib/libopencm3_stm32f4.a(nvic.o)
 .bss           0x0000000000000000        0x0 ./libopencm3/lib/libopencm3_stm32f4.a(nvic.o)
 .text.nvic_disable_irq
                0x0000000000000000       0x1c ./libopencm3/lib/libopencm3_stm32f4.a(nvic.o)
 .text.nvic_get_pending_irq
                0x0000000000000000       0x24 ./libopencm3/lib/libopencm3_stm32f4.a(nvic.o)
 .text.nvic_set_pending_irq
                0x0000000000000000       0x1c ./libopencm3/lib/libopencm3_stm32f4.a(nvic.o)
 .text.nvic_clear_pending_irq
                0x0000000000000000       0x1c ./libopencm3/lib/libopencm3_stm32f4.a(nvic.o)
 .text.nvic_get_irq_enabled
                0x0000000000000000       0x24 ./libopencm3/lib/libopencm3_stm32f4.a(nvic.o)
 .text.nvic_get_active_irq
                0x0000000000000000       0x24 ./libopencm3/lib/libopencm3_stm32f4.a(nvic.o)
 .text.nvic_generate_software_interrupt
                0x0000000000000000       0x14 ./libopencm3/lib/libopencm3_stm32f4.a(nvic.o)
 .debug_macro   0x0000000000000000      0xa6c ./libopencm3/lib/libopencm3_stm32f4.a(nvic.o)
 .debug_macro   0x0000000000000000       0x1c ./libopencm3/lib/libopencm3_stm32f4.a(nvic.o)
 .debug_macro   0x0000000000000000      0x34e ./libopencm3/lib/libopencm3_stm32f4.a(nvic.o)
 .debug_macro   0x0000000000000000       0x22 ./libopencm3/lib/libopencm3_stm32f4.a(nvic.o)
 .debug_macro   0x0000000000000000       0xe8 ./libopencm3/lib/libopencm3_stm32f4.a(nvic.o)
 .debug_macro   0x0000000000000000       0x76 ./libopencm3/lib/libopencm3_stm32f4.a(nvic.o)
 .debug_macro   0x0000000000000000      0x22c ./libopencm3/lib/libopencm3_stm32f4.a(nvic.o)
 .group         0x0000000000000000        0xc ./libopencm3/lib/libopencm3_stm32f4.a(flash_common_all.o)
 .group         0x0000000000000000        0xc ./libopencm3/lib/libopencm3_stm32f4.a(flash_common_all.o)
 .group         0x0000000000000000        0xc ./libopencm3/lib/libopencm3_stm32f4.a(flash_common_all.o)
 .group         0x0000000000000000        0xc ./libopencm3/lib/libopencm3_stm32f4.a(flash_common_all.o)
 .group         0x0000000000000000        0xc ./libopencm3/lib/libopencm3_stm32f4.a(flash_common_all.o)
 .group         0x0000000000000000        0xc ./libopencm3/lib/libopencm3_stm32f4.a(flash_common_all.o)
 .group         0x0000000000000000        0xc ./libopencm3/lib/libopencm3_stm32f4.a(flash_common_all.o)
 .group         0x0000000000000000        0xc ./libopencm3/lib/libopencm3_stm32f4.a(flash_common_all.o)
 .group         0x0000000000000000        0xc ./libopencm3/lib/libopencm3_stm32f4.a(flash_common_all.o)
 .group         0x0000000000000000        0xc ./libopencm3/lib/libopencm3_stm32f4.a(flash_common_all.o)
 .text          0x0000000000000000        0x0 ./libopencm3/lib/libopencm3_stm32f4.a(flash_common_all.o)
 .data          0x0000000000000000        0x0 ./libopencm3/lib/libopencm3_stm32f4.a(flash_common_all.o)
 .bss           0x0000000000000000        0x0 ./libopencm3/lib/libopencm3_stm32f4.a(flash_common_all.o)
 .text.flash_prefetch_enable
                0x0000000000000000       0x14 ./libopencm3/lib/libopencm3_stm32f4.a(flash_common_all.o)
 .text.flash_prefetch_disable
                0x0000000000000000       0x14 ./libopencm3/lib/libopencm3_stm32f4.a(flash_common_all.o)
 .text.flash_set_ws
                0x0000000000000000       0x18 ./libopencm3/lib/libopencm3_stm32f4.a(flash_common_all.o)
 .text.flash_unlock_option_bytes
                0x0000000000000000       0x1c ./libopencm3/lib/libopencm3_stm32f4.a(flash_common_all.o)
 .debug_info    0x0000000000000000       0xf0 ./libopencm3/lib/libopencm3_stm32f4.a(flash_common_all.o)
 .debug_abbrev  0x0000000000000000       0x9a ./libopencm3/lib/libopencm3_stm32f4.a(flash_common_all.o)
 .debug_loc     0x0000000000000000       0x47 ./libopencm3/lib/libopencm3_stm32f4.a(flash_common_all.o)
 .debug_aranges
                0x0000000000000000       0x38 ./libopencm3/lib/libopencm3_stm32f4.a(flash_common_all.o)
 .debug_ranges  0x0000000000000000       0x28 ./libopencm3/lib/libopencm3_stm32f4.a(flash_common_all.o)
 .debug_macro   0x0000000000000000       0x8e ./libopencm3/lib/libopencm3_stm32f4.a(flash_common_all.o)
 .debug_macro   0x0000000000000000      0xa6c ./libopencm3/lib/libopencm3_stm32f4.a(flash_common_all.o)
 .debug_macro   0x0000000000000000       0x1c ./libopencm3/lib/libopencm3_stm32f4.a(flash_common_all.o)
 .debug_macro   0x0000000000000000      0x34e ./libopencm3/lib/libopencm3_stm32f4.a(flash_common_all.o)
 .debug_macro   0x0000000000000000       0x22 ./libopencm3/lib/libopencm3_stm32f4.a(flash_common_all.o)
 .debug_macro   0x0000000000000000       0xe8 ./libopencm3/lib/libopencm3_stm32f4.a(flash_common_all.o)
 .debug_macro   0x0000000000000000       0x76 ./libopencm3/lib/libopencm3_stm32f4.a(flash_common_all.o)
 .debug_macro   0x0000000000000000      0x280 ./libopencm3/lib/libopencm3_stm32f4.a(flash_common_all.o)
 .debug_macro   0x0000000000000000       0x1c ./libopencm3/lib/libopencm3_stm32f4.a(flash_common_all.o)
 .debug_macro   0x0000000000000000      0x143 ./libopencm3/lib/libopencm3_stm32f4.a(flash_common_all.o)
 .debug_macro   0x0000000000000000       0x10 ./libopencm3/lib/libopencm3_stm32f4.a(flash_common_all.o)
 .debug_line    0x0000000000000000      0x246 ./libopencm3/lib/libopencm3_stm32f4.a(flash_common_all.o)
 .debug_str     0x0000000000000000     0x550f ./libopencm3/lib/libopencm3_stm32f4.a(flash_common_all.o)
 .comment       0x0000000000000000       0x34 ./libopencm3/lib/libopencm3_stm32f4.a(flash_common_all.o)
 .debug_frame   0x0000000000000000       0x50 ./libopencm3/lib/libopencm3_stm32f4.a(flash_common_all.o)
 .ARM.attributes
                0x0000000000000000       0x34 ./libopencm3/lib/libopencm3_stm32f4.a(flash_common_all.o)
 .group         0x0000000000000000        0xc ./libopencm3/lib/libopencm3_stm32f4.a(flash_common_idcache.o)
 .group         0x0000000000000000        0xc ./libopencm3/lib/libopencm3_stm32f4.a(flash_common_idcache.o)
 .group         0x0000000000000000        0xc ./libopencm3/lib/libopencm3_stm32f4.a(flash_common_idcache.o)
 .group         0x0000000000000000        0xc ./libopencm3/lib/libopencm3_stm32f4.a(flash_common_idcache.o)
 .group         0x0000000000000000        0xc ./libopencm3/lib/libopencm3_stm32f4.a(flash_common_idcache.o)
 .group         0x0000000000000000        0xc ./libopencm3/lib/libopencm3_stm32f4.a(flash_common_idcache.o)
 .group         0x0000000000000000        0xc ./libopencm3/lib/libopencm3_stm32f4.a(flash_common_idcache.o)
 .group         0x0000000000000000        0xc ./libopencm3/lib/libopencm3_stm32f4.a(flash_common_idcache.o)
 .group         0x0000000000000000        0xc ./libopencm3/lib/libopencm3_stm32f4.a(flash_common_idcache.o)
 .group         0x0000000000000000        0xc ./libopencm3/lib/libopencm3_stm32f4.a(flash_common_idcache.o)
 .text          0x0000000000000000        0x0 ./libopencm3/lib/libopencm3_stm32f4.a(flash_common_idcache.o)
 .data          0x0000000000000000        0x0 ./libopencm3/lib/libopencm3_stm32f4.a(flash_common_idcache.o)
 .bss           0x0000000000000000        0x0 ./libopencm3/lib/libopencm3_stm32f4.a(flash_common_idcache.o)
 .text.flash_dcache_enable
                0x0000000000000000       0x14 ./libopencm3/lib/libopencm3_stm32f4.a(flash_common_idcache.o)
 .text.flash_dcache_disable
                0x0000000000000000       0x14 ./libopencm3/lib/libopencm3_stm32f4.a(flash_common_idcache.o)
 .text.flash_icache_enable
                0x0000000000000000       0x14 ./libopencm3/lib/libopencm3_stm32f4.a(flash_common_idcache.o)
 .text.flash_icache_disable
                0x0000000000000000       0x14 ./libopencm3/lib/libopencm3_stm32f4.a(flash_common_idcache.o)
 .text.flash_dcache_reset
                0x0000000000000000       0x14 ./libopencm3/lib/libopencm3_stm32f4.a(flash_common_idcache.o)
 .text.flash_icache_reset
                0x0000000000000000       0x14 ./libopencm3/lib/libopencm3_stm32f4.a(flash_common_idcache.o)
 .debug_info    0x0000000000000000       0xe8 ./libopencm3/lib/libopencm3_stm32f4.a(flash_common_idcache.o)
 .debug_abbrev  0x0000000000000000       0x56 ./libopencm3/lib/libopencm3_stm32f4.a(flash_common_idcache.o)
 .debug_aranges
                0x0000000000000000       0x48 ./libopencm3/lib/libopencm3_stm32f4.a(flash_common_idcache.o)
 .debug_ranges  0x0000000000000000       0x38 ./libopencm3/lib/libopencm3_stm32f4.a(flash_common_idcache.o)
 .debug_macro   0x0000000000000000       0x8e ./libopencm3/lib/libopencm3_stm32f4.a(flash_common_idcache.o)
 .debug_macro   0x0000000000000000      0xa6c ./libopencm3/lib/libopencm3_stm32f4.a(flash_common_idcache.o)
 .debug_macro   0x0000000000000000       0x1c ./libopencm3/lib/libopencm3_stm32f4.a(flash_common_idcache.o)
 .debug_macro   0x0000000000000000      0x34e ./libopencm3/lib/libopencm3_stm32f4.a(flash_common_idcache.o)
 .debug_macro   0x0000000000000000       0x22 ./libopencm3/lib/libopencm3_stm32f4.a(flash_common_idcache.o)
 .debug_macro   0x0000000000000000       0xe8 ./libopencm3/lib/libopencm3_stm32f4.a(flash_common_idcache.o)
 .debug_macro   0x0000000000000000       0x76 ./libopencm3/lib/libopencm3_stm32f4.a(flash_common_idcache.o)
 .debug_macro   0x0000000000000000      0x280 ./libopencm3/lib/libopencm3_stm32f4.a(flash_common_idcache.o)
 .debug_macro   0x0000000000000000       0x1c ./libopencm3/lib/libopencm3_stm32f4.a(flash_common_idcache.o)
 .debug_macro   0x0000000000000000      0x143 ./libopencm3/lib/libopencm3_stm32f4.a(flash_common_idcache.o)
 .debug_macro   0x0000000000000000       0x10 ./libopencm3/lib/libopencm3_stm32f4.a(flash_common_idcache.o)
 .debug_line    0x0000000000000000      0x25f ./libopencm3/lib/libopencm3_stm32f4.a(flash_common_idcache.o)
 .debug_str     0x0000000000000000     0x5531 ./libopencm3/lib/libopencm3_stm32f4.a(flash_common_idcache.o)
 .comment       0x0000000000000000       0x34 ./libopencm3/lib/libopencm3_stm32f4.a(flash_common_idcache.o)
 .debug_frame   0x0000000000000000       0x70 ./libopencm3/lib/libopencm3_stm32f4.a(flash_common_idcache.o)
 .ARM.attributes
                0x0000000000000000       0x34 ./libopencm3/lib/libopencm3_stm32f4.a(flash_common_idcache.o)
 .group         0x0000000000000000        0xc ./libopencm3/lib/libopencm3_stm32f4.a(pwr.o)
 .group         0x0000000000000000        0xc ./libopencm3/lib/libopencm3_stm32f4.a(pwr.o)
 .group         0x0000000000000000        0xc ./libopencm3/lib/libopencm3_stm32f4.a(pwr.o)
 .group         0x0000000000000000        0xc ./libopencm3/lib/libopencm3_stm32f4.a(pwr.o)
 .group         0x0000000000000000        0xc ./libopencm3/lib/libopencm3_stm32f4.a(pwr.o)
 .group         0x0000000000000000        0xc ./libopencm3/lib/libopencm3_stm32f4.a(pwr.o)
 .group         0x0000000000000000        0xc ./libopencm3/lib/libopencm3_stm32f4.a(pwr.o)
 .group         0x0000000000000000        0xc ./libopencm3/lib/libopencm3_stm32f4.a(pwr.o)
 .group         0x0000000000000000        0xc ./libopencm3/lib/libopencm3_stm32f4.a(pwr.o)
 .text          0x0000000000000000        0x0 ./libopencm3/lib/libopencm3_stm32f4.a(pwr.o)
 .data          0x0000000000000000        0x0 ./libopencm3/lib/libopencm3_stm32f4.a(pwr.o)
 .bss           0x0000000000000000        0x0 ./libopencm3/lib/libopencm3_stm32f4.a(pwr.o)
 .text.pwr_set_vos_scale
                0x0000000000000000       0x18 ./libopencm3/lib/libopencm3_stm32f4.a(pwr.o)
 .debug_info    0x0000000000000000       0xdc ./libopencm3/lib/libopencm3_stm32f4.a(pwr.o)
 .debug_abbrev  0x0000000000000000       0x9c ./libopencm3/lib/libopencm3_stm32f4.a(pwr.o)
 .debug_loc     0x0000000000000000       0x47 ./libopencm3/lib/libopencm3_stm32f4.a(pwr.o)
 .debug_aranges
                0x0000000000000000       0x20 ./libopencm3/lib/libopencm3_stm32f4.a(pwr.o)
 .debug_ranges  0x0000000000000000       0x10 ./libopencm3/lib/libopencm3_stm32f4.a(pwr.o)
 .debug_macro   0x0000000000000000       0x6f ./libopencm3/lib/libopencm3_stm32f4.a(pwr.o)
 .debug_macro   0x0000000000000000      0xa6c ./libopencm3/lib/libopencm3_stm32f4.a(pwr.o)
 .debug_macro   0x0000000000000000       0x1c ./libopencm3/lib/libopencm3_stm32f4.a(pwr.o)
 .debug_macro   0x0000000000000000      0x34e ./libopencm3/lib/libopencm3_stm32f4.a(pwr.o)
 .debug_macro   0x0000000000000000       0x22 ./libopencm3/lib/libopencm3_stm32f4.a(pwr.o)
 .debug_macro   0x0000000000000000       0xe8 ./libopencm3/lib/libopencm3_stm32f4.a(pwr.o)
 .debug_macro   0x0000000000000000       0x76 ./libopencm3/lib/libopencm3_stm32f4.a(pwr.o)
 .debug_macro   0x0000000000000000      0x280 ./libopencm3/lib/libopencm3_stm32f4.a(pwr.o)
 .debug_macro   0x0000000000000000       0x8e ./libopencm3/lib/libopencm3_stm32f4.a(pwr.o)
 .debug_macro   0x0000000000000000       0x46 ./libopencm3/lib/libopencm3_stm32f4.a(pwr.o)
 .debug_line    0x0000000000000000      0x18c ./libopencm3/lib/libopencm3_stm32f4.a(pwr.o)
 .debug_str     0x0000000000000000     0x518b ./libopencm3/lib/libopencm3_stm32f4.a(pwr.o)
 .comment       0x0000000000000000       0x34 ./libopencm3/lib/libopencm3_stm32f4.a(pwr.o)
 .debug_frame   0x0000000000000000       0x20 ./libopencm3/lib/libopencm3_stm32f4.a(pwr.o)
 .ARM.attributes
                0x0000000000000000       0x34 ./libopencm3/lib/libopencm3_stm32f4.a(pwr.o)
 .data          0x0000000000000000        0x0 /usr/lib/gcc/arm-none-eabi/10.3.1/../../../arm-none-eabi/lib/thumb/v7e-m+fp/hard/libc.a(lib_a-malloc.o)
 .bss           0x0000000000000000        0x0 /usr/lib/gcc/arm-none-eabi/10.3.1/../../../arm-none-eabi/lib/thumb/v7e-m+fp/hard/libc.a(lib_a-malloc.o)
 .data          0x0000000000000000        0x0 /usr/lib/gcc/arm-none-eabi/10.3.1/../../../arm-none-eabi/lib/thumb/v7e-m+fp/hard/libc.a(lib_a-memcmp.o)
 .bss           0x0000000000000000        0x0 /usr/lib/gcc/arm-none-eabi/10.3.1/../../../arm-none-eabi/lib/thumb/v7e-m+fp/hard/libc.a(lib_a-memcmp.o)
 .data          0x0000000000000000        0x0 /usr/lib/gcc/arm-none-eabi/10.3.1/../../../arm-none-eabi/lib/thumb/v7e-m+fp/hard/libc.a(lib_a-memcpy.o)
 .bss           0x0000000000000000        0x0 /usr/lib/gcc/arm-none-eabi/10.3.1/../../../arm-none-eabi/lib/thumb/v7e-m+fp/hard/libc.a(lib_a-memcpy.o)
 .data          0x0000000000000000        0x0 /usr/lib/gcc/arm-none-eabi/10.3.1/../../../arm-none-eabi/lib/thumb/v7e-m+fp/hard/libc.a(lib_a-mlock.o)
 .bss           0x0000000000000000        0x0 /usr/lib/gcc/arm-none-eabi/10.3.1/../../../arm-none-eabi/lib/thumb/v7e-m+fp/hard/libc.a(lib_a-mlock.o)
 .data          0x0000000000000000        0x0 /usr/lib/gcc/arm-none-eabi/10.3.1/../../../arm-none-eabi/lib/thumb/v7e-m+fp/hard/libc.a(lib_a-sbrkr.o)
 .bss           0x0000000000000000        0x0 /usr/lib/gcc/arm-none-eabi/10.3.1/../../../arm-none-eabi/lib/thumb/v7e-m+fp/hard/libc.a(lib_a-sbrkr.o)
 .data          0x0000000000000000        0x0 /usr/lib/gcc/arm-none-eabi/10.3.1/../../../arm-none-eabi/lib/thumb/v7e-m+fp/hard/libc.a(lib_a-sprintf.o)
 .bss           0x0000000000000000        0x0 /usr/lib/gcc/arm-none-eabi/10.3.1/../../../arm-none-eabi/lib/thumb/v7e-m+fp/hard/libc.a(lib_a-sprintf.o)
 .data          0x0000000000000000        0x0 /usr/lib/gcc/arm-none-eabi/10.3.1/../../../arm-none-eabi/lib/thumb/v7e-m+fp/hard/libc.a(lib_a-strcpy.o)
 .bss           0x0000000000000000        0x0 /usr/lib/gcc/arm-none-eabi/10.3.1/../../../arm-none-eabi/lib/thumb/v7e-m+fp/hard/libc.a(lib_a-strcpy.o)
 .data          0x0000000000000000        0x0 /usr/lib/gcc/arm-none-eabi/10.3.1/../../../arm-none-eabi/lib/thumb/v7e-m+fp/hard/libc.a(lib_a-strtol.o)
 .bss           0x0000000000000000        0x0 /usr/lib/gcc/arm-none-eabi/10.3.1/../../../arm-none-eabi/lib/thumb/v7e-m+fp/hard/libc.a(lib_a-strtol.o)
 .data          0x0000000000000000        0x0 /usr/lib/gcc/arm-none-eabi/10.3.1/../../../arm-none-eabi/lib/thumb/v7e-m+fp/hard/libc.a(lib_a-svfprintf.o)
 .bss           0x0000000000000000        0x0 /usr/lib/gcc/arm-none-eabi/10.3.1/../../../arm-none-eabi/lib/thumb/v7e-m+fp/hard/libc.a(lib_a-svfprintf.o)
 .text          0x0000000000000000        0x0 /usr/lib/gcc/arm-none-eabi/10.3.1/../../../arm-none-eabi/lib/thumb/v7e-m+fp/hard/libc.a(lib_a-ctype_.o)
 .data          0x0000000000000000        0x0 /usr/lib/gcc/arm-none-eabi/10.3.1/../../../arm-none-eabi/lib/thumb/v7e-m+fp/hard/libc.a(lib_a-ctype_.o)
 .bss           0x0000000000000000        0x0 /usr/lib/gcc/arm-none-eabi/10.3.1/../../../arm-none-eabi/lib/thumb/v7e-m+fp/hard/libc.a(lib_a-ctype_.o)
 .data          0x0000000000000000        0x0 /usr/lib/gcc/arm-none-eabi/10.3.1/../../../arm-none-eabi/lib/thumb/v7e-m+fp/hard/libc.a(lib_a-dtoa.o)
 .bss           0x0000000000000000        0x0 /usr/lib/gcc/arm-none-eabi/10.3.1/../../../arm-none-eabi/lib/thumb/v7e-m+fp/hard/libc.a(lib_a-dtoa.o)
 .data          0x0000000000000000        0x0 /usr/lib/gcc/arm-none-eabi/10.3.1/../../../arm-none-eabi/lib/thumb/v7e-m+fp/hard/libc.a(lib_a-errno.o)
 .bss           0x0000000000000000        0x0 /usr/lib/gcc/arm-none-eabi/10.3.1/../../../arm-none-eabi/lib/thumb/v7e-m+fp/hard/libc.a(lib_a-errno.o)
 .data          0x0000000000000000        0x0 /usr/lib/gcc/arm-none-eabi/10.3.1/../../../arm-none-eabi/lib/thumb/v7e-m+fp/hard/libc.a(lib_a-freer.o)
 .bss           0x0000000000000000        0x0 /usr/lib/gcc/arm-none-eabi/10.3.1/../../../arm-none-eabi/lib/thumb/v7e-m+fp/hard/libc.a(lib_a-freer.o)
 .text          0x0000000000000000        0x0 /usr/lib/gcc/arm-none-eabi/10.3.1/../../../arm-none-eabi/lib/thumb/v7e-m+fp/hard/libc.a(lib_a-impure.o)
 .bss           0x0000000000000000        0x0 /usr/lib/gcc/arm-none-eabi/10.3.1/../../../arm-none-eabi/lib/thumb/v7e-m+fp/hard/libc.a(lib_a-impure.o)
 .data          0x0000000000000000        0x0 /usr/lib/gcc/arm-none-eabi/10.3.1/../../../arm-none-eabi/lib/thumb/v7e-m+fp/hard/libc.a(lib_a-localeconv.o)
 .bss           0x0000000000000000        0x0 /usr/lib/gcc/arm-none-eabi/10.3.1/../../../arm-none-eabi/lib/thumb/v7e-m+fp/hard/libc.a(lib_a-localeconv.o)
 .data          0x0000000000000000        0x0 /usr/lib/gcc/arm-none-eabi/10.3.1/../../../arm-none-eabi/lib/thumb/v7e-m+fp/hard/libc.a(lib_a-memchr.o)
 .bss           0x0000000000000000        0x0 /usr/lib/gcc/arm-none-eabi/10.3.1/../../../arm-none-eabi/lib/thumb/v7e-m+fp/hard/libc.a(lib_a-memchr.o)
 .data          0x0000000000000000        0x0 /usr/lib/gcc/arm-none-eabi/10.3.1/../../../arm-none-eabi/lib/thumb/v7e-m+fp/hard/libc.a(lib_a-mprec.o)
 .bss           0x0000000000000000        0x0 /usr/lib/gcc/arm-none-eabi/10.3.1/../../../arm-none-eabi/lib/thumb/v7e-m+fp/hard/libc.a(lib_a-mprec.o)
 .text          0x0000000000000000       0xd8 /usr/lib/gcc/arm-none-eabi/10.3.1/../../../arm-none-eabi/lib/thumb/v7e-m+fp/hard/libc.a(lib_a-reent.o)
 .data          0x0000000000000000        0x0 /usr/lib/gcc/arm-none-eabi/10.3.1/../../../arm-none-eabi/lib/thumb/v7e-m+fp/hard/libc.a(lib_a-reent.o)
 .data          0x0000000000000000        0x0 /usr/lib/gcc/arm-none-eabi/10.3.1/../../../arm-none-eabi/lib/thumb/v7e-m+fp/hard/libc.a(lib_a-strlen.o)
 .bss           0x0000000000000000        0x0 /usr/lib/gcc/arm-none-eabi/10.3.1/../../../arm-none-eabi/lib/thumb/v7e-m+fp/hard/libc.a(lib_a-strlen.o)
 .data          0x0000000000000000        0x0 /usr/lib/gcc/arm-none-eabi/10.3.1/../../../arm-none-eabi/lib/thumb/v7e-m+fp/hard/libc.a(lib_a-svfiprintf.o)
 .bss           0x0000000000000000        0x0 /usr/lib/gcc/arm-none-eabi/10.3.1/../../../arm-none-eabi/lib/thumb/v7e-m+fp/hard/libc.a(lib_a-svfiprintf.o)
 .data          0x0000000000000000        0x0 /usr/lib/gcc/arm-none-eabi/10.3.1/../../../arm-none-eabi/lib/thumb/v7e-m+fp/hard/libc.a(lib_a-assert.o)
 .bss           0x0000000000000000        0x0 /usr/lib/gcc/arm-none-eabi/10.3.1/../../../arm-none-eabi/lib/thumb/v7e-m+fp/hard/libc.a(lib_a-assert.o)
 .data          0x0000000000000000        0x0 /usr/lib/gcc/arm-none-eabi/10.3.1/../../../arm-none-eabi/lib/thumb/v7e-m+fp/hard/libc.a(lib_a-callocr.o)
 .bss           0x0000000000000000        0x0 /usr/lib/gcc/arm-none-eabi/10.3.1/../../../arm-none-eabi/lib/thumb/v7e-m+fp/hard/libc.a(lib_a-callocr.o)
 .data          0x0000000000000000        0x0 /usr/lib/gcc/arm-none-eabi/10.3.1/../../../arm-none-eabi/lib/thumb/v7e-m+fp/hard/libc.a(lib_a-fiprintf.o)
 .bss           0x0000000000000000        0x0 /usr/lib/gcc/arm-none-eabi/10.3.1/../../../arm-none-eabi/lib/thumb/v7e-m+fp/hard/libc.a(lib_a-fiprintf.o)
 .bss           0x0000000000000000        0x4 /usr/lib/gcc/arm-none-eabi/10.3.1/../../../arm-none-eabi/lib/thumb/v7e-m+fp/hard/libc.a(lib_a-locale.o)
 .data          0x0000000000000000        0x0 /usr/lib/gcc/arm-none-eabi/10.3.1/../../../arm-none-eabi/lib/thumb/v7e-m+fp/hard/libc.a(lib_a-mbtowc_r.o)
 .bss           0x0000000000000000        0x0 /usr/lib/gcc/arm-none-eabi/10.3.1/../../../arm-none-eabi/lib/thumb/v7e-m+fp/hard/libc.a(lib_a-mbtowc_r.o)
 .data          0x0000000000000000        0x0 /usr/lib/gcc/arm-none-eabi/10.3.1/../../../arm-none-eabi/lib/thumb/v7e-m+fp/hard/libc.a(lib_a-memmove.o)
 .bss           0x0000000000000000        0x0 /usr/lib/gcc/arm-none-eabi/10.3.1/../../../arm-none-eabi/lib/thumb/v7e-m+fp/hard/libc.a(lib_a-memmove.o)
 .data          0x0000000000000000        0x0 /usr/lib/gcc/arm-none-eabi/10.3.1/../../../arm-none-eabi/lib/thumb/v7e-m+fp/hard/libc.a(lib_a-memset.o)
 .bss           0x0000000000000000        0x0 /usr/lib/gcc/arm-none-eabi/10.3.1/../../../arm-none-eabi/lib/thumb/v7e-m+fp/hard/libc.a(lib_a-memset.o)
 .data          0x0000000000000000        0x0 /usr/lib/gcc/arm-none-eabi/10.3.1/../../../arm-none-eabi/lib/thumb/v7e-m+fp/hard/libc.a(lib_a-reallocr.o)
 .bss           0x0000000000000000        0x0 /usr/lib/gcc/arm-none-eabi/10.3.1/../../../arm-none-eabi/lib/thumb/v7e-m+fp/hard/libc.a(lib_a-reallocr.o)
 .data          0x0000000000000000        0x0 /usr/lib/gcc/arm-none-eabi/10.3.1/../../../arm-none-eabi/lib/thumb/v7e-m+fp/hard/libc.a(lib_a-strcmp.o)
 .bss           0x0000000000000000        0x0 /usr/lib/gcc/arm-none-eabi/10.3.1/../../../arm-none-eabi/lib/thumb/v7e-m+fp/hard/libc.a(lib_a-strcmp.o)
 .data          0x0000000000000000        0x0 /usr/lib/gcc/arm-none-eabi/10.3.1/../../../arm-none-eabi/lib/thumb/v7e-m+fp/hard/libc.a(lib_a-vfiprintf.o)
 .bss           0x0000000000000000        0x0 /usr/lib/gcc/arm-none-eabi/10.3.1/../../../arm-none-eabi/lib/thumb/v7e-m+fp/hard/libc.a(lib_a-vfiprintf.o)
 .data          0x0000000000000000        0x0 /usr/lib/gcc/arm-none-eabi/10.3.1/../../../arm-none-eabi/lib/thumb/v7e-m+fp/hard/libc.a(lib_a-wctomb_r.o)
 .bss           0x0000000000000000        0x0 /usr/lib/gcc/arm-none-eabi/10.3.1/../../../arm-none-eabi/lib/thumb/v7e-m+fp/hard/libc.a(lib_a-wctomb_r.o)
 .data          0x0000000000000000        0x0 /usr/lib/gcc/arm-none-eabi/10.3.1/../../../arm-none-eabi/lib/thumb/v7e-m+fp/hard/libc.a(lib_a-wsetup.o)
 .bss           0x0000000000000000        0x0 /usr/lib/gcc/arm-none-eabi/10.3.1/../../../arm-none-eabi/lib/thumb/v7e-m+fp/hard/libc.a(lib_a-wsetup.o)
 .data          0x0000000000000000        0x0 /usr/lib/gcc/arm-none-eabi/10.3.1/../../../arm-none-eabi/lib/thumb/v7e-m+fp/hard/libc.a(lib_a-abort.o)
 .bss           0x0000000000000000        0x0 /usr/lib/gcc/arm-none-eabi/10.3.1/../../../arm-none-eabi/lib/thumb/v7e-m+fp/hard/libc.a(lib_a-abort.o)
 .data          0x0000000000000000        0x0 /usr/lib/gcc/arm-none-eabi/10.3.1/../../../arm-none-eabi/lib/thumb/v7e-m+fp/hard/libc.a(lib_a-fflush.o)
 .bss           0x0000000000000000        0x0 /usr/lib/gcc/arm-none-eabi/10.3.1/../../../arm-none-eabi/lib/thumb/v7e-m+fp/hard/libc.a(lib_a-fflush.o)
 .data          0x0000000000000000        0x0 /usr/lib/gcc/arm-none-eabi/10.3.1/../../../arm-none-eabi/lib/thumb/v7e-m+fp/hard/libc.a(lib_a-findfp.o)
 .bss           0x0000000000000000        0x0 /usr/lib/gcc/arm-none-eabi/10.3.1/../../../arm-none-eabi/lib/thumb/v7e-m+fp/hard/libc.a(lib_a-findfp.o)
 .data          0x0000000000000000        0x0 /usr/lib/gcc/arm-none-eabi/10.3.1/../../../arm-none-eabi/lib/thumb/v7e-m+fp/hard/libc.a(lib_a-fputwc.o)
 .bss           0x0000000000000000        0x0 /usr/lib/gcc/arm-none-eabi/10.3.1/../../../arm-none-eabi/lib/thumb/v7e-m+fp/hard/libc.a(lib_a-fputwc.o)
 .data          0x0000000000000000        0x0 /usr/lib/gcc/arm-none-eabi/10.3.1/../../../arm-none-eabi/lib/thumb/v7e-m+fp/hard/libc.a(lib_a-fvwrite.o)
 .bss           0x0000000000000000        0x0 /usr/lib/gcc/arm-none-eabi/10.3.1/../../../arm-none-eabi/lib/thumb/v7e-m+fp/hard/libc.a(lib_a-fvwrite.o)
 .data          0x0000000000000000        0x0 /usr/lib/gcc/arm-none-eabi/10.3.1/../../../arm-none-eabi/lib/thumb/v7e-m+fp/hard/libc.a(lib_a-fwalk.o)
 .bss           0x0000000000000000        0x0 /usr/lib/gcc/arm-none-eabi/10.3.1/../../../arm-none-eabi/lib/thumb/v7e-m+fp/hard/libc.a(lib_a-fwalk.o)
 .data          0x0000000000000000        0x0 /usr/lib/gcc/arm-none-eabi/10.3.1/../../../arm-none-eabi/lib/thumb/v7e-m+fp/hard/libc.a(lib_a-makebuf.o)
 .bss           0x0000000000000000        0x0 /usr/lib/gcc/arm-none-eabi/10.3.1/../../../arm-none-eabi/lib/thumb/v7e-m+fp/hard/libc.a(lib_a-makebuf.o)
 .data          0x0000000000000000        0x0 /usr/lib/gcc/arm-none-eabi/10.3.1/../../../arm-none-eabi/lib/thumb/v7e-m+fp/hard/libc.a(lib_a-signal.o)
 .bss           0x0000000000000000        0x0 /usr/lib/gcc/arm-none-eabi/10.3.1/../../../arm-none-eabi/lib/thumb/v7e-m+fp/hard/libc.a(lib_a-signal.o)
 .data          0x0000000000000000        0x0 /usr/lib/gcc/arm-none-eabi/10.3.1/../../../arm-none-eabi/lib/thumb/v7e-m+fp/hard/libc.a(lib_a-signalr.o)
 .bss           0x0000000000000000        0x0 /usr/lib/gcc/arm-none-eabi/10.3.1/../../../arm-none-eabi/lib/thumb/v7e-m+fp/hard/libc.a(lib_a-signalr.o)
 .data          0x0000000000000000        0x0 /usr/lib/gcc/arm-none-eabi/10.3.1/../../../arm-none-eabi/lib/thumb/v7e-m+fp/hard/libc.a(lib_a-stdio.o)
 .bss           0x0000000000000000        0x0 /usr/lib/gcc/arm-none-eabi/10.3.1/../../../arm-none-eabi/lib/thumb/v7e-m+fp/hard/libc.a(lib_a-stdio.o)
 .data          0x0000000000000000        0x0 /usr/lib/gcc/arm-none-eabi/10.3.1/../../../arm-none-eabi/lib/thumb/v7e-m+fp/hard/libc.a(lib_a-wbuf.o)
 .bss           0x0000000000000000        0x0 /usr/lib/gcc/arm-none-eabi/10.3.1/../../../arm-none-eabi/lib/thumb/v7e-m+fp/hard/libc.a(lib_a-wbuf.o)
 .data          0x0000000000000000        0x0 /usr/lib/gcc/arm-none-eabi/10.3.1/../../../arm-none-eabi/lib/thumb/v7e-m+fp/hard/libc.a(lib_a-wcrtomb.o)
 .bss           0x0000000000000000        0x0 /usr/lib/gcc/arm-none-eabi/10.3.1/../../../arm-none-eabi/lib/thumb/v7e-m+fp/hard/libc.a(lib_a-wcrtomb.o)
 .data          0x0000000000000000        0x0 /usr/lib/gcc/arm-none-eabi/10.3.1/../../../arm-none-eabi/lib/thumb/v7e-m+fp/hard/libc.a(lib_a-writer.o)
 .bss           0x0000000000000000        0x0 /usr/lib/gcc/arm-none-eabi/10.3.1/../../../arm-none-eabi/lib/thumb/v7e-m+fp/hard/libc.a(lib_a-writer.o)
 .data          0x0000000000000000        0x0 /usr/lib/gcc/arm-none-eabi/10.3.1/../../../arm-none-eabi/lib/thumb/v7e-m+fp/hard/libc.a(lib_a-closer.o)
 .bss           0x0000000000000000        0x0 /usr/lib/gcc/arm-none-eabi/10.3.1/../../../arm-none-eabi/lib/thumb/v7e-m+fp/hard/libc.a(lib_a-closer.o)
 .data          0x0000000000000000        0x0 /usr/lib/gcc/arm-none-eabi/10.3.1/../../../arm-none-eabi/lib/thumb/v7e-m+fp/hard/libc.a(lib_a-fclose.o)
 .bss           0x0000000000000000        0x0 /usr/lib/gcc/arm-none-eabi/10.3.1/../../../arm-none-eabi/lib/thumb/v7e-m+fp/hard/libc.a(lib_a-fclose.o)
 .data          0x0000000000000000        0x0 /usr/lib/gcc/arm-none-eabi/10.3.1/../../../arm-none-eabi/lib/thumb/v7e-m+fp/hard/libc.a(lib_a-fstatr.o)
 .bss           0x0000000000000000        0x0 /usr/lib/gcc/arm-none-eabi/10.3.1/../../../arm-none-eabi/lib/thumb/v7e-m+fp/hard/libc.a(lib_a-fstatr.o)
 .data          0x0000000000000000        0x0 /usr/lib/gcc/arm-none-eabi/10.3.1/../../../arm-none-eabi/lib/thumb/v7e-m+fp/hard/libc.a(lib_a-isattyr.o)
 .bss           0x0000000000000000        0x0 /usr/lib/gcc/arm-none-eabi/10.3.1/../../../arm-none-eabi/lib/thumb/v7e-m+fp/hard/libc.a(lib_a-isattyr.o)
 .data          0x0000000000000000        0x0 /usr/lib/gcc/arm-none-eabi/10.3.1/../../../arm-none-eabi/lib/thumb/v7e-m+fp/hard/libc.a(lib_a-lseekr.o)
 .bss           0x0000000000000000        0x0 /usr/lib/gcc/arm-none-eabi/10.3.1/../../../arm-none-eabi/lib/thumb/v7e-m+fp/hard/libc.a(lib_a-lseekr.o)
 .data          0x0000000000000000        0x0 /usr/lib/gcc/arm-none-eabi/10.3.1/../../../arm-none-eabi/lib/thumb/v7e-m+fp/hard/libc.a(lib_a-readr.o)
 .bss           0x0000000000000000        0x0 /usr/lib/gcc/arm-none-eabi/10.3.1/../../../arm-none-eabi/lib/thumb/v7e-m+fp/hard/libc.a(lib_a-readr.o)
 .text          0x0000000000000000      0x254 /usr/lib/gcc/arm-none-eabi/10.3.1/thumb/v7e-m+fp/hard/libgcc.a(_arm_muldf3.o)
 .data          0x0000000000000000        0x0 /usr/lib/gcc/arm-none-eabi/10.3.1/thumb/v7e-m+fp/hard/libgcc.a(_arm_muldf3.o)
 .bss           0x0000000000000000        0x0 /usr/lib/gcc/arm-none-eabi/10.3.1/thumb/v7e-m+fp/hard/libgcc.a(_arm_muldf3.o)
 .debug_line    0x0000000000000000      0x10c /usr/lib/gcc/arm-none-eabi/10.3.1/thumb/v7e-m+fp/hard/libgcc.a(_arm_muldf3.o)
 .debug_info    0x0000000000000000       0x26 /usr/lib/gcc/arm-none-eabi/10.3.1/thumb/v7e-m+fp/hard/libgcc.a(_arm_muldf3.o)
 .debug_abbrev  0x0000000000000000       0x14 /usr/lib/gcc/arm-none-eabi/10.3.1/thumb/v7e-m+fp/hard/libgcc.a(_arm_muldf3.o)
 .debug_aranges
                0x0000000000000000       0x20 /usr/lib/gcc/arm-none-eabi/10.3.1/thumb/v7e-m+fp/hard/libgcc.a(_arm_muldf3.o)
 .debug_str     0x0000000000000000       0xab /usr/lib/gcc/arm-none-eabi/10.3.1/thumb/v7e-m+fp/hard/libgcc.a(_arm_muldf3.o)
 .debug_frame   0x0000000000000000       0x30 /usr/lib/gcc/arm-none-eabi/10.3.1/thumb/v7e-m+fp/hard/libgcc.a(_arm_muldf3.o)
 .ARM.attributes
                0x0000000000000000       0x1e /usr/lib/gcc/arm-none-eabi/10.3.1/thumb/v7e-m+fp/hard/libgcc.a(_arm_muldf3.o)
 .data          0x0000000000000000        0x0 /usr/lib/gcc/arm-none-eabi/10.3.1/thumb/v7e-m+fp/hard/libgcc.a(_arm_addsubdf3.o)
 .bss           0x0000000000000000        0x0 /usr/lib/gcc/arm-none-eabi/10.3.1/thumb/v7e-m+fp/hard/libgcc.a(_arm_addsubdf3.o)
 .data          0x0000000000000000        0x0 /usr/lib/gcc/arm-none-eabi/10.3.1/thumb/v7e-m+fp/hard/libgcc.a(_arm_muldivdf3.o)
 .bss           0x0000000000000000        0x0 /usr/lib/gcc/arm-none-eabi/10.3.1/thumb/v7e-m+fp/hard/libgcc.a(_arm_muldivdf3.o)
 .data          0x0000000000000000        0x0 /usr/lib/gcc/arm-none-eabi/10.3.1/thumb/v7e-m+fp/hard/libgcc.a(_arm_cmpdf2.o)
 .bss           0x0000000000000000        0x0 /usr/lib/gcc/arm-none-eabi/10.3.1/thumb/v7e-m+fp/hard/libgcc.a(_arm_cmpdf2.o)
 .data          0x0000000000000000        0x0 /usr/lib/gcc/arm-none-eabi/10.3.1/thumb/v7e-m+fp/hard/libgcc.a(_arm_unorddf2.o)
 .bss           0x0000000000000000        0x0 /usr/lib/gcc/arm-none-eabi/10.3.1/thumb/v7e-m+fp/hard/libgcc.a(_arm_unorddf2.o)
 .data          0x0000000000000000        0x0 /usr/lib/gcc/arm-none-eabi/10.3.1/thumb/v7e-m+fp/hard/libgcc.a(_arm_fixdfsi.o)
 .bss           0x0000000000000000        0x0 /usr/lib/gcc/arm-none-eabi/10.3.1/thumb/v7e-m+fp/hard/libgcc.a(_arm_fixdfsi.o)
 .data          0x0000000000000000        0x0 /usr/lib/gcc/arm-none-eabi/10.3.1/thumb/v7e-m+fp/hard/libgcc.a(_arm_addsubsf3.o)
 .bss           0x0000000000000000        0x0 /usr/lib/gcc/arm-none-eabi/10.3.1/thumb/v7e-m+fp/hard/libgcc.a(_arm_addsubsf3.o)
 .data          0x0000000000000000        0x0 /usr/lib/gcc/arm-none-eabi/10.3.1/thumb/v7e-m+fp/hard/libgcc.a(_aeabi_uldivmod.o)
 .bss           0x0000000000000000        0x0 /usr/lib/gcc/arm-none-eabi/10.3.1/thumb/v7e-m+fp/hard/libgcc.a(_aeabi_uldivmod.o)
 .data          0x0000000000000000        0x0 /usr/lib/gcc/arm-none-eabi/10.3.1/thumb/v7e-m+fp/hard/libgcc.a(_udivmoddi4.o)
 .bss           0x0000000000000000        0x0 /usr/lib/gcc/arm-none-eabi/10.3.1/thumb/v7e-m+fp/hard/libgcc.a(_udivmoddi4.o)
 .ARM.extab     0x0000000000000000        0x0 /usr/lib/gcc/arm-none-eabi/10.3.1/thumb/v7e-m+fp/hard/libgcc.a(_udivmoddi4.o)
 .data          0x0000000000000000        0x0 /usr/lib/gcc/arm-none-eabi/10.3.1/thumb/v7e-m+fp/hard/libgcc.a(_dvmd_tls.o)
 .bss           0x0000000000000000        0x0 /usr/lib/gcc/arm-none-eabi/10.3.1/thumb/v7e-m+fp/hard/libgcc.a(_dvmd_tls.o)
 .data          0x0000000000000000        0x0 /usr/lib/gcc/arm-none-eabi/10.3.1/../../../arm-none-eabi/lib/thumb/v7e-m+fp/hard/libnosys.a(close.o)
 .bss           0x0000000000000000        0x0 /usr/lib/gcc/arm-none-eabi/10.3.1/../../../arm-none-eabi/lib/thumb/v7e-m+fp/hard/libnosys.a(close.o)
 .data          0x0000000000000000        0x0 /usr/lib/gcc/arm-none-eabi/10.3.1/../../../arm-none-eabi/lib/thumb/v7e-m+fp/hard/libnosys.a(fstat.o)
 .bss           0x0000000000000000        0x0 /usr/lib/gcc/arm-none-eabi/10.3.1/../../../arm-none-eabi/lib/thumb/v7e-m+fp/hard/libnosys.a(fstat.o)
 .data          0x0000000000000000        0x0 /usr/lib/gcc/arm-none-eabi/10.3.1/../../../arm-none-eabi/lib/thumb/v7e-m+fp/hard/libnosys.a(getpid.o)
 .bss           0x0000000000000000        0x0 /usr/lib/gcc/arm-none-eabi/10.3.1/../../../arm-none-eabi/lib/thumb/v7e-m+fp/hard/libnosys.a(getpid.o)
 .data          0x0000000000000000        0x0 /usr/lib/gcc/arm-none-eabi/10.3.1/../../../arm-none-eabi/lib/thumb/v7e-m+fp/hard/libnosys.a(isatty.o)
 .bss           0x0000000000000000        0x0 /usr/lib/gcc/arm-none-eabi/10.3.1/../../../arm-none-eabi/lib/thumb/v7e-m+fp/hard/libnosys.a(isatty.o)
 .data          0x0000000000000000        0x0 /usr/lib/gcc/arm-none-eabi/10.3.1/../../../arm-none-eabi/lib/thumb/v7e-m+fp/hard/libnosys.a(kill.o)
 .bss           0x0000000000000000        0x0 /usr/lib/gcc/arm-none-eabi/10.3.1/../../../arm-none-eabi/lib/thumb/v7e-m+fp/hard/libnosys.a(kill.o)
 .data          0x0000000000000000        0x0 /usr/lib/gcc/arm-none-eabi/10.3.1/../../../arm-none-eabi/lib/thumb/v7e-m+fp/hard/libnosys.a(lseek.o)
 .bss           0x0000000000000000        0x0 /usr/lib/gcc/arm-none-eabi/10.3.1/../../../arm-none-eabi/lib/thumb/v7e-m+fp/hard/libnosys.a(lseek.o)
 .data          0x0000000000000000        0x0 /usr/lib/gcc/arm-none-eabi/10.3.1/../../../arm-none-eabi/lib/thumb/v7e-m+fp/hard/libnosys.a(read.o)
 .bss           0x0000000000000000        0x0 /usr/lib/gcc/arm-none-eabi/10.3.1/../../../arm-none-eabi/lib/thumb/v7e-m+fp/hard/libnosys.a(read.o)
 .data          0x0000000000000000        0x0 /usr/lib/gcc/arm-none-eabi/10.3.1/../../../arm-none-eabi/lib/thumb/v7e-m+fp/hard/libnosys.a(sbrk.o)
 .data          0x0000000000000000        0x0 /usr/lib/gcc/arm-none-eabi/10.3.1/../../../arm-none-eabi/lib/thumb/v7e-m+fp/hard/libnosys.a(write.o)
 .bss           0x0000000000000000        0x0 /usr/lib/gcc/arm-none-eabi/10.3.1/../../../arm-none-eabi/lib/thumb/v7e-m+fp/hard/libnosys.a(write.o)
 .data          0x0000000000000000        0x0 /usr/lib/gcc/arm-none-eabi/10.3.1/../../../arm-none-eabi/lib/thumb/v7e-m+fp/hard/libnosys.a(_exit.o)
 .bss           0x0000000000000000        0x0 /usr/lib/gcc/arm-none-eabi/10.3.1/../../../arm-none-eabi/lib/thumb/v7e-m+fp/hard/libnosys.a(_exit.o)

Memory Configuration

Name             Origin             Length             Attributes
ram              0x0000000020000000 0x0000000000010000 xrw
rom              0x0000000008000000 0x0000000000040000 xr
*default*        0x0000000000000000 0xffffffffffffffff

Linker script and memory map

LOAD ./.obj/main.o
LOAD ./.obj/Time.o
LOAD ./.obj/cli_queue.o
LOAD ./.obj/cli_string.o
LOAD ./.obj/cli_input.o
LOAD ./.obj/cli_log.o
LOAD ./.obj/cli_time.o
LOAD ./.obj/terminal.o
LOAD ./.obj/my_test_commands.o
LOAD ./libopencm3/lib/libopencm3_stm32f4.a
START GROUP
LOAD /usr/lib/gcc/arm-none-eabi/10.3.1/../../../arm-none-eabi/lib/thumb/v7e-m+fp/hard/libc.a
LOAD /usr/lib/gcc/arm-none-eabi/10.3.1/thumb/v7e-m+fp/hard/libgcc.a
LOAD /usr/lib/gcc/arm-none-eabi/10.3.1/../../../arm-none-eabi/lib/thumb/v7e-m+fp/hard/libnosys.a
END GROUP
START GROUP
LOAD /usr/lib/gcc/arm-none-eabi/10.3.1/thumb/v7e-m+fp/hard/libgcc.a
LOAD /usr/lib/gcc/arm-none-eabi/10.3.1/../../../arm-none-eabi/lib/thumb/v7e-m+fp/hard/libg.a
LOAD /usr/lib/gcc/arm-none-eabi/10.3.1/../../../arm-none-eabi/lib/thumb/v7e-m+fp/hard/libc.a
END GROUP

.text           0x0000000008000000     0xa3b8
 *(.vectors)
 .vectors       0x0000000008000000      0x1ac ./libopencm3/lib/libopencm3_stm32f4.a(vector.o)
                0x0000000008000000                vector_table
 *(.text*)
 .text.TUSART_PutChar
                0x00000000080001ac        0xc ./.obj/main.o
                0x00000000080001ac                TUSART_PutChar
 .text.TUSART_Print
                0x00000000080001b8       0x18 ./.obj/main.o
                0x00000000080001b8                TUSART_Print
 .text.TUSART_GetChar
                0x00000000080001d0       0x20 ./.obj/main.o
                0x00000000080001d0                TUSART_GetChar
 .text._reset_fcn
                0x00000000080001f0       0x1c ./.obj/main.o
                0x00000000080001f0                _reset_fcn
 .text.Gpio_setup
                0x000000000800020c       0x48 ./.obj/main.o
                0x000000000800020c                Gpio_setup
 .text.Uart_setup
                0x0000000008000254       0x60 ./.obj/main.o
                0x0000000008000254                Uart_setup
 .text._InitHW  0x00000000080002b4       0x2e ./.obj/main.o
                0x00000000080002b4                _InitHW
 .text._InitSW  0x00000000080002e2       0x12 ./.obj/main.o
                0x00000000080002e2                _InitSW
 .text.startup.main
                0x00000000080002f4       0x10 ./.obj/main.o
                0x00000000080002f4                main
 .text.usart1_isr
                0x0000000008000304       0x1a ./.obj/main.o
                0x0000000008000304                usart1_isr
 *fill*         0x000000000800031e        0x2 
 .text.Time_setup
                0x0000000008000320       0x80 ./.obj/Time.o
                0x0000000008000320                Time_setup
 .text.Time_get_counter
                0x00000000080003a0       0x1c ./.obj/Time.o
                0x00000000080003a0                Time_get_counter
 .text.tim2_isr
                0x00000000080003bc       0x24 ./.obj/Time.o
                0x00000000080003bc                tim2_isr
 .text.Q_Init   0x00000000080003e0       0x20 ./.obj/cli_queue.o
                0x00000000080003e0                Q_Init
 .text.Q_Push   0x0000000008000400       0x50 ./.obj/cli_queue.o
                0x0000000008000400                Q_Push
 .text.Q_IsEqual
                0x0000000008000450       0x1e ./.obj/cli_queue.o
                0x0000000008000450                Q_IsEqual
 .text.ArgDestroy
                0x000000000800046e        0x6 ./.obj/cli_string.o
                0x000000000800046e                ArgDestroy
 .text._strcpy  0x0000000008000474       0x20 ./.obj/cli_string.o
                0x0000000008000474                _strcpy
 .text._strlen  0x0000000008000494       0x18 ./.obj/cli_string.o
                0x0000000008000494                _strlen
 .text._getCountSeparator
                0x00000000080004ac       0x36 ./.obj/cli_string.o
                0x00000000080004ac                _getCountSeparator
 .text.split    0x00000000080004e2       0x76 ./.obj/cli_string.o
                0x00000000080004e2                split
 .text._strPartCmp
                0x0000000008000558       0x28 ./.obj/cli_string.o
                0x0000000008000558                _strPartCmp
 .text._strcmp  0x0000000008000580       0x52 ./.obj/cli_string.o
                0x0000000008000580                _strcmp
 *fill*         0x00000000080005d2        0x2 
 .text.INPUT_Refresh
                0x00000000080005d4       0xb8 ./.obj/cli_input.o
                0x00000000080005d4                INPUT_Refresh
 .text.INPUT_IsEmpty
                0x000000000800068c       0x18 ./.obj/cli_input.o
                0x000000000800068c                INPUT_IsEmpty
 .text.INPUT_IsFull
                0x00000000080006a4       0x18 ./.obj/cli_input.o
                0x00000000080006a4                INPUT_IsFull
 .text.INPUT_RemChar
                0x00000000080006bc       0xa8 ./.obj/cli_input.o
                0x00000000080006bc                INPUT_RemChar
 .text.INPUT_AddChar
                0x0000000008000764       0xb8 ./.obj/cli_input.o
                0x0000000008000764                INPUT_AddChar
 .text.INPUT_Init
                0x000000000800081c       0x58 ./.obj/cli_input.o
                0x000000000800081c                INPUT_Init
 .text.INPUT_PutChar
                0x0000000008000874      0x128 ./.obj/cli_input.o
                0x0000000008000874                INPUT_PutChar
 .text.INPUT_Cache
                0x000000000800099c       0x1c ./.obj/cli_input.o
                0x000000000800099c                INPUT_Cache
 .text.INPUT_Reset
                0x00000000080009b8       0x18 ./.obj/cli_input.o
                0x00000000080009b8                INPUT_Reset
 .text.INPUT_GetLastChar
                0x00000000080009d0       0x18 ./.obj/cli_input.o
                0x00000000080009d0                INPUT_GetLastChar
 .text.INPUT_CursorShift
                0x00000000080009e8       0x14 ./.obj/cli_input.o
                0x00000000080009e8                INPUT_CursorShift
 .text.INPUT_GetBuffer
                0x00000000080009fc       0x10 ./.obj/cli_input.o
                0x00000000080009fc                INPUT_GetBuffer
 .text.INPUT_SetBuffer
                0x0000000008000a0c       0x24 ./.obj/cli_input.o
                0x0000000008000a0c                INPUT_SetBuffer
 .text.INPUT_CursorToHome
                0x0000000008000a30       0x28 ./.obj/cli_input.o
                0x0000000008000a30                INPUT_CursorToHome
 .text.INPUT_CursorToEnd
                0x0000000008000a58       0x28 ./.obj/cli_input.o
                0x0000000008000a58                INPUT_CursorToEnd
 .text.INPUT_CursorToLeft
                0x0000000008000a80       0x28 ./.obj/cli_input.o
                0x0000000008000a80                INPUT_CursorToLeft
 .text.INPUT_CursorToRight
                0x0000000008000aa8       0x2c ./.obj/cli_input.o
                0x0000000008000aa8                INPUT_CursorToRight
 .text.INPUT_Delete
                0x0000000008000ad4       0x5c ./.obj/cli_input.o
                0x0000000008000ad4                INPUT_Delete
 .text.INPUT_Backspace
                0x0000000008000b30       0x24 ./.obj/cli_input.o
                0x0000000008000b30                INPUT_Backspace
 .text.CLI_LogCmdPush
                0x0000000008000b54       0xac ./.obj/cli_log.o
                0x0000000008000b54                CLI_LogCmdPush
 .text.CLI_GetNextCmd
                0x0000000008000c00       0x2c ./.obj/cli_log.o
                0x0000000008000c00                CLI_GetNextCmd
 .text.CLI_GetLastCmd
                0x0000000008000c2c       0x28 ./.obj/cli_log.o
                0x0000000008000c2c                CLI_GetLastCmd
 .text.CLI_CurReset
                0x0000000008000c54       0x10 ./.obj/cli_log.o
                0x0000000008000c54                CLI_CurReset
 .text.CLI_LogInit
                0x0000000008000c64       0x24 ./.obj/cli_log.o
                0x0000000008000c64                CLI_LogInit
 .text.CLI_GetFormatTimeByMs
                0x0000000008000c88       0x34 ./.obj/cli_time.o
                0x0000000008000c88                CLI_GetFormatTimeByMs
 .text.CLI_SetBaseTimeFromMs
                0x0000000008000cbc        0xc ./.obj/cli_time.o
                0x0000000008000cbc                CLI_SetBaseTimeFromMs
 .text.CLI_SetBaseTimeFromHMS
                0x0000000008000cc8       0x24 ./.obj/cli_time.o
                0x0000000008000cc8                CLI_SetBaseTimeFromHMS
 .text.CLI_GetFormatLastTimeByMs
                0x0000000008000cec       0x14 ./.obj/cli_time.o
                0x0000000008000cec                CLI_GetFormatLastTimeByMs
 .text._help_cmd
                0x0000000008000d00       0x84 ./.obj/terminal.o
 .text._reset_cpu
                0x0000000008000d84        0xa ./.obj/terminal.o
 *fill*         0x0000000008000d8e        0x2 
 .text.CLI_GetIntState
                0x0000000008000d90       0x10 ./.obj/terminal.o
                0x0000000008000d90                CLI_GetIntState
 .text._IndexOfFlag
                0x0000000008000da0       0x38 ./.obj/terminal.o
                0x0000000008000da0                _IndexOfFlag
 .text.CLI_GetArgDec
                0x0000000008000dd8       0x18 ./.obj/terminal.o
                0x0000000008000dd8                CLI_GetArgDec
 .text._settime_cmd
                0x0000000008000df0       0x26 ./.obj/terminal.o
 *fill*         0x0000000008000e16        0x2 
 .text.CLI_GetArgHex
                0x0000000008000e18       0x18 ./.obj/terminal.o
                0x0000000008000e18                CLI_GetArgHex
 .text._cpurb_cmd
                0x0000000008000e30       0x48 ./.obj/terminal.o
 .text._cpuw_cmd
                0x0000000008000e78       0x16 ./.obj/terminal.o
 *fill*         0x0000000008000e8e        0x2 
 .text._cpur_cmd
                0x0000000008000e90       0x28 ./.obj/terminal.o
 .text.CLI_GetArgHexByFlag
                0x0000000008000eb8       0x2c ./.obj/terminal.o
                0x0000000008000eb8                CLI_GetArgHexByFlag
 .text._PrintResultExec
                0x0000000008000ee4       0x44 ./.obj/terminal.o
                0x0000000008000ee4                _PrintResultExec
 .text._PrintResultAddCmd
                0x0000000008000f28       0x44 ./.obj/terminal.o
                0x0000000008000f28                _PrintResultAddCmd
 .text.CLI_AddCmd
                0x0000000008000f6c       0x8c ./.obj/terminal.o
                0x0000000008000f6c                CLI_AddCmd
 .text.CLI_Init
                0x0000000008000ff8      0x254 ./.obj/terminal.o
                0x0000000008000ff8                CLI_Init
 .text._findTermCmd
                0x000000000800124c       0x30 ./.obj/terminal.o
                0x000000000800124c                _findTermCmd
 .text._findPartTermCmd
                0x000000000800127c       0x3c ./.obj/terminal.o
                0x000000000800127c                _findPartTermCmd
 .text._PrintTime
                0x00000000080012b8       0x2c ./.obj/terminal.o
                0x00000000080012b8                _PrintTime
 .text.CLI_PrintTime
                0x00000000080012e4       0x34 ./.obj/terminal.o
                0x00000000080012e4                CLI_PrintTime
 .text._gettime_cmd
                0x0000000008001318       0x20 ./.obj/terminal.o
 .text._Execute
                0x0000000008001338       0xc4 ./.obj/terminal.o
                0x0000000008001338                _Execute
 .text._ExecuteString
                0x00000000080013fc       0x60 ./.obj/terminal.o
                0x00000000080013fc                _ExecuteString
 .text.CLI_Execute
                0x000000000800145c       0x24 ./.obj/terminal.o
                0x000000000800145c                CLI_Execute
 .text.CLI_EnterChar
                0x0000000008001480      0x1a4 ./.obj/terminal.o
                0x0000000008001480                CLI_EnterChar
 .text._t2_cmd  0x0000000008001624       0x24 ./.obj/my_test_commands.o
 .text._t1_cmd  0x0000000008001648       0x50 ./.obj/my_test_commands.o
 .text.MyTestCmds_Init
                0x0000000008001698       0x40 ./.obj/my_test_commands.o
                0x0000000008001698                MyTestCmds_Init
 .text.gpio_mode_setup
                0x00000000080016d8       0x40 ./libopencm3/lib/libopencm3_stm32f4.a(gpio_common_f0234.o)
                0x00000000080016d8                gpio_mode_setup
 .text.gpio_set_af
                0x0000000008001718       0x58 ./libopencm3/lib/libopencm3_stm32f4.a(gpio_common_f0234.o)
                0x0000000008001718                gpio_set_af
 .text.rcc_periph_clock_enable
                0x0000000008001770       0x1c ./libopencm3/lib/libopencm3_stm32f4.a(rcc_common_all.o)
                0x0000000008001770                rcc_periph_clock_enable
 .text.rcc_periph_reset_pulse
                0x000000000800178c       0x24 ./libopencm3/lib/libopencm3_stm32f4.a(rcc_common_all.o)
                0x000000000800178c                rcc_periph_reset_pulse
 .text.rcc_is_osc_ready
                0x00000000080017b0       0x64 ./libopencm3/lib/libopencm3_stm32f4.a(rcc.o)
                0x00000000080017b0                rcc_is_osc_ready
 .text.rcc_wait_for_sysclk_status
                0x0000000008001814       0x40 ./libopencm3/lib/libopencm3_stm32f4.a(rcc.o)
                0x0000000008001814                rcc_wait_for_sysclk_status
 .text.rcc_osc_on
                0x0000000008001854       0x74 ./libopencm3/lib/libopencm3_stm32f4.a(rcc.o)
                0x0000000008001854                rcc_osc_on
 .text.rcc_set_sysclk_source
                0x00000000080018c8       0x18 ./libopencm3/lib/libopencm3_stm32f4.a(rcc.o)
                0x00000000080018c8                rcc_set_sysclk_source
 .text.rcc_get_usart_clk_freq
                0x00000000080018e0       0x20 ./libopencm3/lib/libopencm3_stm32f4.a(rcc.o)
                0x00000000080018e0                rcc_get_usart_clk_freq
 .text.timer_enable_irq
                0x0000000008001900        0x8 ./libopencm3/lib/libopencm3_stm32f4.a(timer_common_all.o)
                0x0000000008001900                timer_enable_irq
 .text.timer_clear_flag
                0x0000000008001908        0x6 ./libopencm3/lib/libopencm3_stm32f4.a(timer_common_all.o)
                0x0000000008001908                timer_clear_flag
 .text.timer_set_mode
                0x000000000800190e       0x12 ./libopencm3/lib/libopencm3_stm32f4.a(timer_common_all.o)
                0x000000000800190e                timer_set_mode
 .text.timer_disable_preload
                0x0000000008001920        0xa ./libopencm3/lib/libopencm3_stm32f4.a(timer_common_all.o)
                0x0000000008001920                timer_disable_preload
 .text.timer_continuous_mode
                0x000000000800192a        0xa ./libopencm3/lib/libopencm3_stm32f4.a(timer_common_all.o)
                0x000000000800192a                timer_continuous_mode
 .text.timer_enable_counter
                0x0000000008001934        0xa ./libopencm3/lib/libopencm3_stm32f4.a(timer_common_all.o)
                0x0000000008001934                timer_enable_counter
 .text.timer_set_prescaler
                0x000000000800193e        0x4 ./libopencm3/lib/libopencm3_stm32f4.a(timer_common_all.o)
                0x000000000800193e                timer_set_prescaler
 .text.timer_set_period
                0x0000000008001942        0x4 ./libopencm3/lib/libopencm3_stm32f4.a(timer_common_all.o)
                0x0000000008001942                timer_set_period
 .text.timer_generate_event
                0x0000000008001946        0x8 ./libopencm3/lib/libopencm3_stm32f4.a(timer_common_all.o)
                0x0000000008001946                timer_generate_event
 .text.timer_get_counter
                0x000000000800194e        0x4 ./libopencm3/lib/libopencm3_stm32f4.a(timer_common_all.o)
                0x000000000800194e                timer_get_counter
 .text.usart_set_baudrate
                0x0000000008001952       0x16 ./libopencm3/lib/libopencm3_stm32f4.a(usart_common_all.o)
                0x0000000008001952                usart_set_baudrate
 .text.usart_set_databits
                0x0000000008001968       0x12 ./libopencm3/lib/libopencm3_stm32f4.a(usart_common_all.o)
                0x0000000008001968                usart_set_databits
 .text.usart_set_stopbits
                0x000000000800197a        0xc ./libopencm3/lib/libopencm3_stm32f4.a(usart_common_all.o)
                0x000000000800197a                usart_set_stopbits
 .text.usart_set_parity
                0x0000000008001986        0xc ./libopencm3/lib/libopencm3_stm32f4.a(usart_common_all.o)
                0x0000000008001986                usart_set_parity
 .text.usart_set_mode
                0x0000000008001992        0xc ./libopencm3/lib/libopencm3_stm32f4.a(usart_common_all.o)
                0x0000000008001992                usart_set_mode
 .text.usart_set_flow_control
                0x000000000800199e        0xc ./libopencm3/lib/libopencm3_stm32f4.a(usart_common_all.o)
                0x000000000800199e                usart_set_flow_control
 .text.usart_enable
                0x00000000080019aa        0xa ./libopencm3/lib/libopencm3_stm32f4.a(usart_common_all.o)
                0x00000000080019aa                usart_enable
 .text.usart_send_blocking
                0x00000000080019b4       0x18 ./libopencm3/lib/libopencm3_stm32f4.a(usart_common_all.o)
                0x00000000080019b4                usart_send_blocking
 .text.usart_enable_rx_interrupt
                0x00000000080019cc        0xa ./libopencm3/lib/libopencm3_stm32f4.a(usart_common_all.o)
                0x00000000080019cc                usart_enable_rx_interrupt
 .text.usart_send
                0x00000000080019d6        0x8 ./libopencm3/lib/libopencm3_stm32f4.a(usart_common_f124.o)
                0x00000000080019d6                usart_send
 .text.usart_recv
                0x00000000080019de        0x8 ./libopencm3/lib/libopencm3_stm32f4.a(usart_common_f124.o)
                0x00000000080019de                usart_recv
 .text.usart_wait_send_ready
                0x00000000080019e6        0x8 ./libopencm3/lib/libopencm3_stm32f4.a(usart_common_f124.o)
                0x00000000080019e6                usart_wait_send_ready
 .text.usart_get_flag
                0x00000000080019ee        0xc ./libopencm3/lib/libopencm3_stm32f4.a(usart_common_f124.o)
                0x00000000080019ee                usart_get_flag
 .text.blocking_handler
                0x00000000080019fa        0x2 ./libopencm3/lib/libopencm3_stm32f4.a(vector.o)
                0x00000000080019fa                dma2_stream1_isr
                0x00000000080019fa                tim8_brk_tim12_isr
                0x00000000080019fa                dma1_stream7_isr
                0x00000000080019fa                usart3_isr
                0x00000000080019fa                tim7_isr
                0x00000000080019fa                dma2d_isr
                0x00000000080019fa                uart8_isr
                0x00000000080019fa                dma1_stream2_isr
                0x00000000080019fa                otg_hs_isr
                0x00000000080019fa                blocking_handler
                0x00000000080019fa                tim5_isr
                0x00000000080019fa                rtc_wkup_isr
                0x00000000080019fa                otg_fs_isr
                0x00000000080019fa                spi1_isr
                0x00000000080019fa                i2c3_er_isr
                0x00000000080019fa                exti2_isr
                0x00000000080019fa                spi5_isr
                0x00000000080019fa                usb_fs_wkup_isr
                0x00000000080019fa                tamp_stamp_isr
                0x00000000080019fa                can1_rx1_isr
                0x00000000080019fa                dma2_stream0_isr
                0x00000000080019fa                i2c3_ev_isr
                0x00000000080019fa                usage_fault_handler
                0x00000000080019fa                can2_rx0_isr
                0x00000000080019fa                dma1_stream6_isr
                0x00000000080019fa                can2_rx1_isr
                0x00000000080019fa                can1_sce_isr
                0x00000000080019fa                tim1_cc_isr
                0x00000000080019fa                can1_tx_isr
                0x00000000080019fa                tim1_up_tim10_isr
                0x00000000080019fa                sdio_isr
                0x00000000080019fa                eth_isr
                0x00000000080019fa                spi6_isr
                0x00000000080019fa                dma2_stream5_isr
                0x00000000080019fa                pvd_isr
                0x00000000080019fa                can1_rx0_isr
                0x00000000080019fa                rcc_isr
                0x00000000080019fa                dma2_stream3_isr
                0x00000000080019fa                flash_isr
                0x00000000080019fa                uart4_isr
                0x00000000080019fa                lcd_tft_isr
                0x00000000080019fa                rtc_alarm_isr
                0x00000000080019fa                exti15_10_isr
                0x00000000080019fa                hash_rng_isr
                0x00000000080019fa                tim1_trg_com_tim11_isr
                0x00000000080019fa                hard_fault_handler
                0x00000000080019fa                exti1_isr
                0x00000000080019fa                i2c1_ev_isr
                0x00000000080019fa                usart6_isr
                0x00000000080019fa                spi2_isr
                0x00000000080019fa                cryp_isr
                0x00000000080019fa                nvic_wwdg_isr
                0x00000000080019fa                dma1_stream1_isr
                0x00000000080019fa                dma2_stream4_isr
                0x00000000080019fa                exti3_isr
                0x00000000080019fa                tim3_isr
                0x00000000080019fa                usart2_isr
                0x00000000080019fa                sai1_isr
                0x00000000080019fa                fpu_isr
                0x00000000080019fa                dma1_stream4_isr
                0x00000000080019fa                i2c2_er_isr
                0x00000000080019fa                i2c2_ev_isr
                0x00000000080019fa                uart5_isr
                0x00000000080019fa                dma2_stream6_isr
                0x00000000080019fa                spi4_isr
                0x00000000080019fa                adc_isr
                0x00000000080019fa                dma2_stream7_isr
                0x00000000080019fa                tim8_up_tim13_isr
                0x00000000080019fa                fsmc_isr
                0x00000000080019fa                exti4_isr
                0x00000000080019fa                tim6_dac_isr
                0x00000000080019fa                dma1_stream3_isr
                0x00000000080019fa                tim8_trg_com_tim14_isr
                0x00000000080019fa                mem_manage_handler
                0x00000000080019fa                lcd_tft_err_isr
                0x00000000080019fa                can2_tx_isr
                0x00000000080019fa                exti9_5_isr
                0x00000000080019fa                tim1_brk_tim9_isr
                0x00000000080019fa                uart7_isr
                0x00000000080019fa                can2_sce_isr
                0x00000000080019fa                tim4_isr
                0x00000000080019fa                otg_hs_wkup_isr
                0x00000000080019fa                i2c1_er_isr
                0x00000000080019fa                dma1_stream0_isr
                0x00000000080019fa                tim8_cc_isr
                0x00000000080019fa                dcmi_isr
                0x00000000080019fa                dma2_stream2_isr
                0x00000000080019fa                eth_wkup_isr
                0x00000000080019fa                bus_fault_handler
                0x00000000080019fa                otg_hs_ep1_out_isr
                0x00000000080019fa                spi3_isr
                0x00000000080019fa                dma1_stream5_isr
                0x00000000080019fa                otg_hs_ep1_in_isr
                0x00000000080019fa                exti0_isr
 .text.null_handler
                0x00000000080019fc        0x2 ./libopencm3/lib/libopencm3_stm32f4.a(vector.o)
                0x00000000080019fc                null_handler
                0x00000000080019fc                sv_call_handler
                0x00000000080019fc                pend_sv_handler
                0x00000000080019fc                debug_monitor_handler
                0x00000000080019fc                sys_tick_handler
                0x00000000080019fc                nmi_handler
 *fill*         0x00000000080019fe        0x2 
 .text.reset_handler
                0x0000000008001a00       0xa0 ./libopencm3/lib/libopencm3_stm32f4.a(vector.o)
                0x0000000008001a00                reset_handler
 .text.scb_reset_system
                0x0000000008001aa0       0x10 ./libopencm3/lib/libopencm3_stm32f4.a(scb.o)
                0x0000000008001aa0                scb_reset_system
 .text.nvic_enable_irq
                0x0000000008001ab0       0x1c ./libopencm3/lib/libopencm3_stm32f4.a(nvic.o)
                0x0000000008001ab0                nvic_enable_irq
 .text.nvic_set_priority
                0x0000000008001acc       0x20 ./libopencm3/lib/libopencm3_stm32f4.a(nvic.o)
                0x0000000008001acc                nvic_set_priority
 .text          0x0000000008001aec       0x20 /usr/lib/gcc/arm-none-eabi/10.3.1/../../../arm-none-eabi/lib/thumb/v7e-m+fp/hard/libc.a(lib_a-malloc.o)
                0x0000000008001aec                malloc
                0x0000000008001afc                free
 .text          0x0000000008001b0c      0x554 /usr/lib/gcc/arm-none-eabi/10.3.1/../../../arm-none-eabi/lib/thumb/v7e-m+fp/hard/libc.a(lib_a-mallocr.o)
                0x0000000008001b0c                _malloc_r
 .text          0x0000000008002060       0x64 /usr/lib/gcc/arm-none-eabi/10.3.1/../../../arm-none-eabi/lib/thumb/v7e-m+fp/hard/libc.a(lib_a-memcmp.o)
                0x0000000008002060                memcmp
 .text          0x00000000080020c4      0x134 /usr/lib/gcc/arm-none-eabi/10.3.1/../../../arm-none-eabi/lib/thumb/v7e-m+fp/hard/libc.a(lib_a-memcpy.o)
                0x00000000080020c4                memcpy
 .text          0x00000000080021f8        0x8 /usr/lib/gcc/arm-none-eabi/10.3.1/../../../arm-none-eabi/lib/thumb/v7e-m+fp/hard/libc.a(lib_a-mlock.o)
                0x00000000080021f8                __malloc_lock
                0x00000000080021fc                __malloc_unlock
 .text          0x0000000008002200       0x24 /usr/lib/gcc/arm-none-eabi/10.3.1/../../../arm-none-eabi/lib/thumb/v7e-m+fp/hard/libc.a(lib_a-sbrkr.o)
                0x0000000008002200                _sbrk_r
 .text          0x0000000008002224       0x78 /usr/lib/gcc/arm-none-eabi/10.3.1/../../../arm-none-eabi/lib/thumb/v7e-m+fp/hard/libc.a(lib_a-sprintf.o)
                0x0000000008002224                _sprintf_r
                0x000000000800225c                sprintf
 .text          0x000000000800229c       0xbc /usr/lib/gcc/arm-none-eabi/10.3.1/../../../arm-none-eabi/lib/thumb/v7e-m+fp/hard/libc.a(lib_a-strcpy.o)
                0x000000000800229c                strcpy
 .text          0x0000000008002358      0x188 /usr/lib/gcc/arm-none-eabi/10.3.1/../../../arm-none-eabi/lib/thumb/v7e-m+fp/hard/libc.a(lib_a-strtol.o)
                0x0000000008002478                _strtol_r
                0x0000000008002490                strtol_l
                0x00000000080024b8                strtol
 .text          0x00000000080024e0     0x14bc /usr/lib/gcc/arm-none-eabi/10.3.1/../../../arm-none-eabi/lib/thumb/v7e-m+fp/hard/libc.a(lib_a-svfprintf.o)
                0x00000000080024e0                _svfprintf_r
 *fill*         0x000000000800399c        0x4 
 .text          0x00000000080039a0     0x1064 /usr/lib/gcc/arm-none-eabi/10.3.1/../../../arm-none-eabi/lib/thumb/v7e-m+fp/hard/libc.a(lib_a-dtoa.o)
                0x0000000008003ac8                _dtoa_r
 .text          0x0000000008004a04        0xc /usr/lib/gcc/arm-none-eabi/10.3.1/../../../arm-none-eabi/lib/thumb/v7e-m+fp/hard/libc.a(lib_a-errno.o)
                0x0000000008004a04                __errno
 .text          0x0000000008004a10      0x2ac /usr/lib/gcc/arm-none-eabi/10.3.1/../../../arm-none-eabi/lib/thumb/v7e-m+fp/hard/libc.a(lib_a-freer.o)
                0x0000000008004a10                _malloc_trim_r
                0x0000000008004ab0                _free_r
 .text          0x0000000008004cbc       0x14 /usr/lib/gcc/arm-none-eabi/10.3.1/../../../arm-none-eabi/lib/thumb/v7e-m+fp/hard/libc.a(lib_a-localeconv.o)
                0x0000000008004cbc                __localeconv_l
                0x0000000008004cc0                _localeconv_r
                0x0000000008004cc8                localeconv
 .text          0x0000000008004cd0       0xa0 /usr/lib/gcc/arm-none-eabi/10.3.1/../../../arm-none-eabi/lib/thumb/v7e-m+fp/hard/libc.a(lib_a-memchr.o)
                0x0000000008004cd0                memchr
 .text          0x0000000008004d70      0xaa0 /usr/lib/gcc/arm-none-eabi/10.3.1/../../../arm-none-eabi/lib/thumb/v7e-m+fp/hard/libc.a(lib_a-mprec.o)
                0x0000000008004d70                _Balloc
                0x0000000008004dbc                _Bfree
                0x0000000008004dd0                __multadd
                0x0000000008004e78                __s2b
                0x0000000008004f2c                __hi0bits
                0x0000000008004f6c                __lo0bits
                0x0000000008004fcc                __i2b
                0x0000000008005028                __multiply
                0x0000000008005184                __pow5mult
                0x0000000008005244                __lshift
                0x0000000008005334                __mcmp
                0x0000000008005378                __mdiff
                0x00000000080054c4                __ulp
                0x0000000008005524                __b2d
                0x00000000080055e4                __d2b
                0x00000000080056b4                __ratio
                0x0000000008005710                _mprec_log10
                0x0000000008005750                __copybits
                0x00000000080057ac                __any_on
 *fill*         0x0000000008005810       0x30 
 .text          0x0000000008005840       0xdc /usr/lib/gcc/arm-none-eabi/10.3.1/../../../arm-none-eabi/lib/thumb/v7e-m+fp/hard/libc.a(lib_a-strlen.o)
                0x0000000008005840                strlen
 .text          0x000000000800591c      0xb54 /usr/lib/gcc/arm-none-eabi/10.3.1/../../../arm-none-eabi/lib/thumb/v7e-m+fp/hard/libc.a(lib_a-svfiprintf.o)
                0x000000000800591c                __ssprint_r
                0x0000000008005a14                _svfiprintf_r
 .text          0x0000000008006470       0x4c /usr/lib/gcc/arm-none-eabi/10.3.1/../../../arm-none-eabi/lib/thumb/v7e-m+fp/hard/libc.a(lib_a-assert.o)
                0x0000000008006470                __assert_func
                0x00000000080064b0                __assert
 .text          0x00000000080064bc       0x60 /usr/lib/gcc/arm-none-eabi/10.3.1/../../../arm-none-eabi/lib/thumb/v7e-m+fp/hard/libc.a(lib_a-callocr.o)
                0x00000000080064bc                _calloc_r
 .text          0x000000000800651c       0x44 /usr/lib/gcc/arm-none-eabi/10.3.1/../../../arm-none-eabi/lib/thumb/v7e-m+fp/hard/libc.a(lib_a-fiprintf.o)
                0x000000000800651c                _fiprintf_r
                0x0000000008006538                fiprintf
 .text          0x0000000008006560       0x8c /usr/lib/gcc/arm-none-eabi/10.3.1/../../../arm-none-eabi/lib/thumb/v7e-m+fp/hard/libc.a(lib_a-locale.o)
                0x0000000008006560                _setlocale_r
                0x00000000080065a0                __locale_mb_cur_max
                0x00000000080065ac                setlocale
 .text          0x00000000080065ec       0x40 /usr/lib/gcc/arm-none-eabi/10.3.1/../../../arm-none-eabi/lib/thumb/v7e-m+fp/hard/libc.a(lib_a-mbtowc_r.o)
                0x00000000080065ec                _mbtowc_r
                0x0000000008006600                __ascii_mbtowc
 .text          0x000000000800662c       0xf8 /usr/lib/gcc/arm-none-eabi/10.3.1/../../../arm-none-eabi/lib/thumb/v7e-m+fp/hard/libc.a(lib_a-memmove.o)
                0x000000000800662c                memmove
 .text          0x0000000008006724       0xa4 /usr/lib/gcc/arm-none-eabi/10.3.1/../../../arm-none-eabi/lib/thumb/v7e-m+fp/hard/libc.a(lib_a-memset.o)
                0x0000000008006724                memset
 .text          0x00000000080067c8      0x3d8 /usr/lib/gcc/arm-none-eabi/10.3.1/../../../arm-none-eabi/lib/thumb/v7e-m+fp/hard/libc.a(lib_a-reallocr.o)
                0x00000000080067c8                _realloc_r
 .text          0x0000000008006ba0      0x2dc /usr/lib/gcc/arm-none-eabi/10.3.1/../../../arm-none-eabi/lib/thumb/v7e-m+fp/hard/libc.a(lib_a-strcmp.o)
                0x0000000008006ba8                strcmp
 .text          0x0000000008006e7c      0xd44 /usr/lib/gcc/arm-none-eabi/10.3.1/../../../arm-none-eabi/lib/thumb/v7e-m+fp/hard/libc.a(lib_a-vfiprintf.o)
                0x0000000008006ef4                __sprint_r
                0x0000000008006f0c                _vfiprintf_r
                0x0000000008007b38                vfiprintf
 .text          0x0000000008007bc0       0x30 /usr/lib/gcc/arm-none-eabi/10.3.1/../../../arm-none-eabi/lib/thumb/v7e-m+fp/hard/libc.a(lib_a-wctomb_r.o)
                0x0000000008007bc0                _wctomb_r
                0x0000000008007bd4                __ascii_wctomb
 .text          0x0000000008007bf0       0xd4 /usr/lib/gcc/arm-none-eabi/10.3.1/../../../arm-none-eabi/lib/thumb/v7e-m+fp/hard/libc.a(lib_a-wsetup.o)
                0x0000000008007bf0                __swsetup_r
 .text          0x0000000008007cc4       0x10 /usr/lib/gcc/arm-none-eabi/10.3.1/../../../arm-none-eabi/lib/thumb/v7e-m+fp/hard/libc.a(lib_a-abort.o)
                0x0000000008007cc4                abort
 .text          0x0000000008007cd4      0x1ac /usr/lib/gcc/arm-none-eabi/10.3.1/../../../arm-none-eabi/lib/thumb/v7e-m+fp/hard/libc.a(lib_a-fflush.o)
                0x0000000008007cd4                __sflush_r
                0x0000000008007e04                _fflush_r
                0x0000000008007e30                fflush
 .text          0x0000000008007e80      0x218 /usr/lib/gcc/arm-none-eabi/10.3.1/../../../arm-none-eabi/lib/thumb/v7e-m+fp/hard/libc.a(lib_a-findfp.o)
                0x0000000008007e84                _cleanup_r
                0x0000000008007f6c                __sfmoreglue
                0x0000000008007f9c                __sfp
                0x0000000008008044                _cleanup
                0x0000000008008058                __sinit
                0x0000000008008060                __sfp_lock_acquire
                0x0000000008008064                __sfp_lock_release
                0x0000000008008068                __sinit_lock_acquire
                0x000000000800806c                __sinit_lock_release
                0x0000000008008070                __fp_lock_all
                0x0000000008008084                __fp_unlock_all
 .text          0x0000000008008098      0x118 /usr/lib/gcc/arm-none-eabi/10.3.1/../../../arm-none-eabi/lib/thumb/v7e-m+fp/hard/libc.a(lib_a-fputwc.o)
                0x0000000008008098                __fputwc
                0x0000000008008140                _fputwc_r
                0x0000000008008168                fputwc
 .text          0x00000000080081b0      0x2f0 /usr/lib/gcc/arm-none-eabi/10.3.1/../../../arm-none-eabi/lib/thumb/v7e-m+fp/hard/libc.a(lib_a-fvwrite.o)
                0x00000000080081b0                __sfvwrite_r
 .text          0x00000000080084a0       0x88 /usr/lib/gcc/arm-none-eabi/10.3.1/../../../arm-none-eabi/lib/thumb/v7e-m+fp/hard/libc.a(lib_a-fwalk.o)
                0x00000000080084a0                _fwalk
                0x00000000080084e0                _fwalk_reent
 .text          0x0000000008008528      0x140 /usr/lib/gcc/arm-none-eabi/10.3.1/../../../arm-none-eabi/lib/thumb/v7e-m+fp/hard/libc.a(lib_a-makebuf.o)
                0x0000000008008528                __smakebuf_r
                0x0000000008008608                __swhatbuf_r
 .text          0x0000000008008668      0x288 /usr/lib/gcc/arm-none-eabi/10.3.1/../../../arm-none-eabi/lib/thumb/v7e-m+fp/hard/libc.a(lib_a-signal.o)
                0x0000000008008668                _init_signal_r
                0x0000000008008698                _signal_r
                0x00000000080086e4                _raise_r
                0x000000000800873c                __sigtramp_r
                0x00000000080087a0                raise
                0x00000000080087fc                signal
                0x0000000008008850                _init_signal
                0x0000000008008888                __sigtramp
 .text          0x00000000080088f0       0x30 /usr/lib/gcc/arm-none-eabi/10.3.1/../../../arm-none-eabi/lib/thumb/v7e-m+fp/hard/libc.a(lib_a-signalr.o)
                0x00000000080088f0                _kill_r
                0x000000000800891c                _getpid_r
 .text          0x0000000008008920       0x90 /usr/lib/gcc/arm-none-eabi/10.3.1/../../../arm-none-eabi/lib/thumb/v7e-m+fp/hard/libc.a(lib_a-stdio.o)
                0x0000000008008920                __sread
                0x0000000008008944                __seofread
                0x0000000008008948                __swrite
                0x0000000008008988                __sseek
                0x00000000080089a8                __sclose
 .text          0x00000000080089b0       0xc8 /usr/lib/gcc/arm-none-eabi/10.3.1/../../../arm-none-eabi/lib/thumb/v7e-m+fp/hard/libc.a(lib_a-wbuf.o)
                0x00000000080089b0                __swbuf_r
                0x0000000008008a60                __swbuf
 .text          0x0000000008008a78       0x88 /usr/lib/gcc/arm-none-eabi/10.3.1/../../../arm-none-eabi/lib/thumb/v7e-m+fp/hard/libc.a(lib_a-wcrtomb.o)
                0x0000000008008a78                _wcrtomb_r
                0x0000000008008ab4                wcrtomb
 .text          0x0000000008008b00       0x2c /usr/lib/gcc/arm-none-eabi/10.3.1/../../../arm-none-eabi/lib/thumb/v7e-m+fp/hard/libc.a(lib_a-writer.o)
                0x0000000008008b00                _write_r
 .text          0x0000000008008b2c       0x24 /usr/lib/gcc/arm-none-eabi/10.3.1/../../../arm-none-eabi/lib/thumb/v7e-m+fp/hard/libc.a(lib_a-closer.o)
                0x0000000008008b2c                _close_r
 .text          0x0000000008008b50       0xd4 /usr/lib/gcc/arm-none-eabi/10.3.1/../../../arm-none-eabi/lib/thumb/v7e-m+fp/hard/libc.a(lib_a-fclose.o)
                0x0000000008008bb4                _fclose_r
                0x0000000008008be8                fclose
 .text          0x0000000008008c24       0x2c /usr/lib/gcc/arm-none-eabi/10.3.1/../../../arm-none-eabi/lib/thumb/v7e-m+fp/hard/libc.a(lib_a-fstatr.o)
                0x0000000008008c24                _fstat_r
 .text          0x0000000008008c50       0x24 /usr/lib/gcc/arm-none-eabi/10.3.1/../../../arm-none-eabi/lib/thumb/v7e-m+fp/hard/libc.a(lib_a-isattyr.o)
                0x0000000008008c50                _isatty_r
 .text          0x0000000008008c74       0x2c /usr/lib/gcc/arm-none-eabi/10.3.1/../../../arm-none-eabi/lib/thumb/v7e-m+fp/hard/libc.a(lib_a-lseekr.o)
                0x0000000008008c74                _lseek_r
 .text          0x0000000008008ca0       0x2c /usr/lib/gcc/arm-none-eabi/10.3.1/../../../arm-none-eabi/lib/thumb/v7e-m+fp/hard/libc.a(lib_a-readr.o)
                0x0000000008008ca0                _read_r
 .text          0x0000000008008ccc      0x378 /usr/lib/gcc/arm-none-eabi/10.3.1/thumb/v7e-m+fp/hard/libgcc.a(_arm_addsubdf3.o)
                0x0000000008008ccc                __aeabi_drsub
                0x0000000008008cd4                __aeabi_dsub
                0x0000000008008cd4                __subdf3
                0x0000000008008cd8                __adddf3
                0x0000000008008cd8                __aeabi_dadd
                0x0000000008008f50                __aeabi_ui2d
                0x0000000008008f50                __floatunsidf
                0x0000000008008f70                __floatsidf
                0x0000000008008f70                __aeabi_i2d
                0x0000000008008f94                __extendsfdf2
                0x0000000008008f94                __aeabi_f2d
                0x0000000008008fd8                __aeabi_ul2d
                0x0000000008008fd8                __floatundidf
                0x0000000008008fe8                __floatdidf
                0x0000000008008fe8                __aeabi_l2d
 .text          0x0000000008009044      0x424 /usr/lib/gcc/arm-none-eabi/10.3.1/thumb/v7e-m+fp/hard/libgcc.a(_arm_muldivdf3.o)
                0x0000000008009044                __aeabi_dmul
                0x0000000008009044                __muldf3
                0x0000000008009298                __aeabi_ddiv
                0x0000000008009298                __divdf3
 .text          0x0000000008009468      0x110 /usr/lib/gcc/arm-none-eabi/10.3.1/thumb/v7e-m+fp/hard/libgcc.a(_arm_cmpdf2.o)
                0x0000000008009468                __gtdf2
                0x0000000008009468                __gedf2
                0x0000000008009470                __ltdf2
                0x0000000008009470                __ledf2
                0x0000000008009478                __cmpdf2
                0x0000000008009478                __eqdf2
                0x0000000008009478                __nedf2
                0x00000000080094f4                __aeabi_cdrcmple
                0x0000000008009504                __aeabi_cdcmple
                0x0000000008009504                __aeabi_cdcmpeq
                0x0000000008009514                __aeabi_dcmpeq
                0x0000000008009528                __aeabi_dcmplt
                0x000000000800953c                __aeabi_dcmple
                0x0000000008009550                __aeabi_dcmpge
                0x0000000008009564                __aeabi_dcmpgt
 .text          0x0000000008009578       0x2c /usr/lib/gcc/arm-none-eabi/10.3.1/thumb/v7e-m+fp/hard/libgcc.a(_arm_unorddf2.o)
                0x0000000008009578                __aeabi_dcmpun
                0x0000000008009578                __unorddf2
 .text          0x00000000080095a4       0x50 /usr/lib/gcc/arm-none-eabi/10.3.1/thumb/v7e-m+fp/hard/libgcc.a(_arm_fixdfsi.o)
                0x00000000080095a4                __fixdfsi
                0x00000000080095a4                __aeabi_d2iz
 .text          0x00000000080095f4      0x21c /usr/lib/gcc/arm-none-eabi/10.3.1/thumb/v7e-m+fp/hard/libgcc.a(_arm_addsubsf3.o)
                0x00000000080095f4                __aeabi_frsub
                0x00000000080095fc                __subsf3
                0x00000000080095fc                __aeabi_fsub
                0x0000000008009600                __aeabi_fadd
                0x0000000008009600                __addsf3
                0x0000000008009760                __aeabi_ui2f
                0x0000000008009760                __floatunsisf
                0x0000000008009768                __aeabi_i2f
                0x0000000008009768                __floatsisf
                0x0000000008009784                __floatundisf
                0x0000000008009784                __aeabi_ul2f
                0x0000000008009794                __floatdisf
                0x0000000008009794                __aeabi_l2f
 .text          0x0000000008009810       0x30 /usr/lib/gcc/arm-none-eabi/10.3.1/thumb/v7e-m+fp/hard/libgcc.a(_aeabi_uldivmod.o)
                0x0000000008009810                __aeabi_uldivmod
 .text          0x0000000008009840      0x2d0 /usr/lib/gcc/arm-none-eabi/10.3.1/thumb/v7e-m+fp/hard/libgcc.a(_udivmoddi4.o)
                0x0000000008009840                __udivmoddi4
 .text          0x0000000008009b10        0x4 /usr/lib/gcc/arm-none-eabi/10.3.1/thumb/v7e-m+fp/hard/libgcc.a(_dvmd_tls.o)
                0x0000000008009b10                __aeabi_ldiv0
                0x0000000008009b10                __aeabi_idiv0
 .text          0x0000000008009b14       0x10 /usr/lib/gcc/arm-none-eabi/10.3.1/../../../arm-none-eabi/lib/thumb/v7e-m+fp/hard/libnosys.a(close.o)
                0x0000000008009b14                _close
 .text          0x0000000008009b24       0x10 /usr/lib/gcc/arm-none-eabi/10.3.1/../../../arm-none-eabi/lib/thumb/v7e-m+fp/hard/libnosys.a(fstat.o)
                0x0000000008009b24                _fstat
 .text          0x0000000008009b34       0x10 /usr/lib/gcc/arm-none-eabi/10.3.1/../../../arm-none-eabi/lib/thumb/v7e-m+fp/hard/libnosys.a(getpid.o)
                0x0000000008009b34                _getpid
 .text          0x0000000008009b44       0x10 /usr/lib/gcc/arm-none-eabi/10.3.1/../../../arm-none-eabi/lib/thumb/v7e-m+fp/hard/libnosys.a(isatty.o)
                0x0000000008009b44                _isatty
 .text          0x0000000008009b54       0x10 /usr/lib/gcc/arm-none-eabi/10.3.1/../../../arm-none-eabi/lib/thumb/v7e-m+fp/hard/libnosys.a(kill.o)
                0x0000000008009b54                _kill
 .text          0x0000000008009b64       0x10 /usr/lib/gcc/arm-none-eabi/10.3.1/../../../arm-none-eabi/lib/thumb/v7e-m+fp/hard/libnosys.a(lseek.o)
                0x0000000008009b64                _lseek
 .text          0x0000000008009b74       0x10 /usr/lib/gcc/arm-none-eabi/10.3.1/../../../arm-none-eabi/lib/thumb/v7e-m+fp/hard/libnosys.a(read.o)
                0x0000000008009b74                _read
 .text          0x0000000008009b84       0x1c /usr/lib/gcc/arm-none-eabi/10.3.1/../../../arm-none-eabi/lib/thumb/v7e-m+fp/hard/libnosys.a(sbrk.o)
                0x0000000008009b84                _sbrk
 .text          0x0000000008009ba0       0x10 /usr/lib/gcc/arm-none-eabi/10.3.1/../../../arm-none-eabi/lib/thumb/v7e-m+fp/hard/libnosys.a(write.o)
                0x0000000008009ba0                _write
 .text          0x0000000008009bb0        0x4 /usr/lib/gcc/arm-none-eabi/10.3.1/../../../arm-none-eabi/lib/thumb/v7e-m+fp/hard/libnosys.a(_exit.o)
                0x0000000008009bb0                _exit
                0x0000000008009bb4                . = ALIGN (0x4)
 *(.rodata*)
 .rodata._reset_fcn.str1.1
                0x0000000008009bb4        0xe ./.obj/main.o
 .rodata.INPUT_Refresh.str1.1
                0x0000000008009bc2        0x4 ./.obj/cli_input.o
 .rodata._help_cmd.str1.1
                0x0000000008009bc6       0xb6 ./.obj/terminal.o
 .rodata._cpurb_cmd.str1.1
                0x0000000008009c7c       0x11 ./.obj/terminal.o
 .rodata._PrintResultExec.str1.1
                0x0000000008009c8d       0x77 ./.obj/terminal.o
 .rodata._PrintResultAddCmd.str1.1
                0x0000000008009d04       0x8b ./.obj/terminal.o
 .rodata.CLI_Init.str1.1
                0x0000000008009d8f      0x1e7 ./.obj/terminal.o
                                        0x20d (size before relaxing)
 .rodata._PrintTime.str1.1
                0x0000000008009f76       0x16 ./.obj/terminal.o
 .rodata._gettime_cmd.str1.1
                0x0000000008009f8c        0x9 ./.obj/terminal.o
 .rodata.CLI_EnterChar.str1.1
                0x0000000008009f95        0xa ./.obj/terminal.o
 .rodata._t2_cmd.str1.1
                0x0000000008009f9f        0xc ./.obj/my_test_commands.o
 .rodata._t1_cmd.str1.1
                0x0000000008009fab       0x24 ./.obj/my_test_commands.o
 .rodata.MyTestCmds_Init.str1.1
                0x0000000008009fcf       0x38 ./.obj/my_test_commands.o
 *fill*         0x000000000800a007        0x1 
 .rodata.str1.4
                0x000000000800a008       0x42 /usr/lib/gcc/arm-none-eabi/10.3.1/../../../arm-none-eabi/lib/thumb/v7e-m+fp/hard/libc.a(lib_a-svfprintf.o)
 *fill*         0x000000000800a04a        0x2 
 .rodata        0x000000000800a04c       0x20 /usr/lib/gcc/arm-none-eabi/10.3.1/../../../arm-none-eabi/lib/thumb/v7e-m+fp/hard/libc.a(lib_a-svfprintf.o)
 .rodata        0x000000000800a06c      0x101 /usr/lib/gcc/arm-none-eabi/10.3.1/../../../arm-none-eabi/lib/thumb/v7e-m+fp/hard/libc.a(lib_a-ctype_.o)
                0x000000000800a06c                _ctype_
 *fill*         0x000000000800a16d        0x3 
 .rodata.str1.4
                0x000000000800a170       0x56 /usr/lib/gcc/arm-none-eabi/10.3.1/../../../arm-none-eabi/lib/thumb/v7e-m+fp/hard/libc.a(lib_a-dtoa.o)
                                         0x5a (size before relaxing)
 *fill*         0x000000000800a1c6        0x2 
 .rodata        0x000000000800a1c8        0x4 /usr/lib/gcc/arm-none-eabi/10.3.1/../../../arm-none-eabi/lib/thumb/v7e-m+fp/hard/libc.a(lib_a-impure.o)
                0x000000000800a1c8                _global_impure_ptr
 .rodata.str1.4
                0x000000000800a1cc       0x33 /usr/lib/gcc/arm-none-eabi/10.3.1/../../../arm-none-eabi/lib/thumb/v7e-m+fp/hard/libc.a(lib_a-mprec.o)
                                         0x47 (size before relaxing)
 *fill*         0x000000000800a1ff        0x1 
 .rodata        0x000000000800a200      0x128 /usr/lib/gcc/arm-none-eabi/10.3.1/../../../arm-none-eabi/lib/thumb/v7e-m+fp/hard/libc.a(lib_a-mprec.o)
                0x000000000800a210                __mprec_tens
                0x000000000800a2d8                __mprec_tinytens
                0x000000000800a300                __mprec_bigtens
 .rodata.str1.4
                0x000000000800a328       0x2f /usr/lib/gcc/arm-none-eabi/10.3.1/../../../arm-none-eabi/lib/thumb/v7e-m+fp/hard/libc.a(lib_a-svfiprintf.o)
 .rodata        0x000000000800a328       0x20 /usr/lib/gcc/arm-none-eabi/10.3.1/../../../arm-none-eabi/lib/thumb/v7e-m+fp/hard/libc.a(lib_a-svfiprintf.o)
 .rodata.str1.4
                0x000000000800a348       0x3f /usr/lib/gcc/arm-none-eabi/10.3.1/../../../arm-none-eabi/lib/thumb/v7e-m+fp/hard/libc.a(lib_a-assert.o)
                                         0x43 (size before relaxing)
 *fill*         0x000000000800a387        0x1 
 .rodata.str1.4
                0x000000000800a388        0xe /usr/lib/gcc/arm-none-eabi/10.3.1/../../../arm-none-eabi/lib/thumb/v7e-m+fp/hard/libc.a(lib_a-locale.o)
                                         0x12 (size before relaxing)
 .rodata.str1.4
                0x000000000800a396       0x2f /usr/lib/gcc/arm-none-eabi/10.3.1/../../../arm-none-eabi/lib/thumb/v7e-m+fp/hard/libc.a(lib_a-vfiprintf.o)
 *fill*         0x000000000800a396        0x2 
 .rodata        0x000000000800a398       0x20 /usr/lib/gcc/arm-none-eabi/10.3.1/../../../arm-none-eabi/lib/thumb/v7e-m+fp/hard/libc.a(lib_a-vfiprintf.o)
                0x000000000800a3b8                . = ALIGN (0x4)

.glue_7         0x000000000800a3b8        0x0
 .glue_7        0x000000000800a3b8        0x0 linker stubs

.glue_7t        0x000000000800a3b8        0x0
 .glue_7t       0x000000000800a3b8        0x0 linker stubs

.vfp11_veneer   0x000000000800a3b8        0x0
 .vfp11_veneer  0x000000000800a3b8        0x0 linker stubs

.v4_bx          0x000000000800a3b8        0x0
 .v4_bx         0x000000000800a3b8        0x0 linker stubs

.iplt           0x000000000800a3b8        0x0
 .iplt          0x000000000800a3b8        0x0 ./.obj/main.o

.preinit_array  0x000000000800a3b8        0x0
                0x000000000800a3b8                . = ALIGN (0x4)
                0x000000000800a3b8                __preinit_array_start = .
 *(.preinit_array)
                0x000000000800a3b8                __preinit_array_end = .

.init_array     0x000000000800a3b8        0x0
                0x000000000800a3b8                . = ALIGN (0x4)
                0x000000000800a3b8                __init_array_start = .
 *(SORT_BY_NAME(.init_array.*))
 *(.init_array)
                0x000000000800a3b8                __init_array_end = .

.fini_array     0x000000000800a3b8        0x0
                0x000000000800a3b8                . = ALIGN (0x4)
                0x000000000800a3b8                __fini_array_start = .
 *(.fini_array)
 *(SORT_BY_NAME(.fini_array.*))
                0x000000000800a3b8                __fini_array_end = .

.ARM.extab
 *(.ARM.extab*)

.ARM.exidx      0x000000000800a3b8        0x8
                0x000000000800a3b8                __exidx_start = .
 *(.ARM.exidx*)
 .ARM.exidx     0x000000000800a3b8        0x8 /usr/lib/gcc/arm-none-eabi/10.3.1/thumb/v7e-m+fp/hard/libgcc.a(_udivmoddi4.o)
                0x000000000800a3c0                __exidx_end = .

.rel.dyn        0x000000000800a3c0        0x0
 .rel.iplt      0x000000000800a3c0        0x0 ./.obj/main.o
                0x000000000800a3c0                . = ALIGN (0x4)
                0x000000000800a3c0                _etext = .

.noinit
 *(.noinit*)
                0x000000000800a3c0                . = ALIGN (0x4)

.data           0x0000000020000000      0x9cc load address 0x000000000800a3c0
                0x0000000020000000                _data = .
 *(.data*)
 .data.arr_down
                0x0000000020000000        0x3 ./.obj/cli_input.o
                0x0000000020000000                arr_down
 .data.arr_esc  0x0000000020000003        0x3 ./.obj/cli_input.o
                0x0000000020000003                arr_esc
 .data.arr_left
                0x0000000020000006        0x3 ./.obj/cli_input.o
                0x0000000020000006                arr_left
 .data.arr_right
                0x0000000020000009        0x3 ./.obj/cli_input.o
                0x0000000020000009                arr_right
 .data.arr_up   0x000000002000000c        0x3 ./.obj/cli_input.o
                0x000000002000000c                arr_up
 .data.del      0x000000002000000f        0x3 ./.obj/cli_input.o
                0x000000002000000f                del
 .data.end      0x0000000020000012        0x3 ./.obj/cli_input.o
 .data.home     0x0000000020000015        0x3 ./.obj/cli_input.o
                0x0000000020000015                home
 .data.rcc_apb1_frequency
                0x0000000020000018        0x4 ./libopencm3/lib/libopencm3_stm32f4.a(rcc.o)
                0x0000000020000018                rcc_apb1_frequency
 .data.rcc_apb2_frequency
                0x000000002000001c        0x4 ./libopencm3/lib/libopencm3_stm32f4.a(rcc.o)
                0x000000002000001c                rcc_apb2_frequency
 .data          0x0000000020000020      0x410 /usr/lib/gcc/arm-none-eabi/10.3.1/../../../arm-none-eabi/lib/thumb/v7e-m+fp/hard/libc.a(lib_a-mallocr.o)
                0x0000000020000020                __malloc_av_
                0x0000000020000428                __malloc_sbrk_base
                0x000000002000042c                __malloc_trim_threshold
 .data          0x0000000020000430      0x430 /usr/lib/gcc/arm-none-eabi/10.3.1/../../../arm-none-eabi/lib/thumb/v7e-m+fp/hard/libc.a(lib_a-impure.o)
                0x0000000020000430                _impure_ptr
 .data          0x0000000020000860      0x16c /usr/lib/gcc/arm-none-eabi/10.3.1/../../../arm-none-eabi/lib/thumb/v7e-m+fp/hard/libc.a(lib_a-locale.o)
                0x0000000020000860                __global_locale
 *(.ramtext*)
                0x00000000200009cc                . = ALIGN (0x4)
                0x00000000200009cc                _edata = .
                0x000000000800a3c0                _data_loadaddr = LOADADDR (.data)

.igot.plt       0x00000000200009cc        0x0 load address 0x000000000800ad8c
 .igot.plt      0x00000000200009cc        0x0 ./.obj/main.o

.bss            0x00000000200009d0      0x594 load address 0x000000000800ad8c
 *(.bss*)
 .bss.dbgbuffer
                0x00000000200009d0      0x100 ./.obj/main.o
                0x00000000200009d0                dbgbuffer
 .bss.micros    0x0000000020000ad0        0x8 ./.obj/Time.o
                0x0000000020000ad0                micros
 .bss.Input     0x0000000020000ad8       0x9c ./.obj/cli_input.o
                0x0000000020000ad8                Input
 .bss.TermLog   0x0000000020000b74      0x25a ./.obj/cli_log.o
                0x0000000020000b74                TermLog
 *fill*         0x0000000020000dce        0x2 
 .bss._def_time_ms
                0x0000000020000dd0        0x4 ./.obj/cli_time.o
                0x0000000020000dd0                _def_time_ms
 .bss.Terminal  0x0000000020000dd4      0x150 ./.obj/terminal.o
                0x0000000020000dd4                Terminal
 .bss._interrupt_operation
                0x0000000020000f24        0x1 ./.obj/terminal.o
 .bss.rstUnlock.0
                0x0000000020000f25        0x1 ./.obj/terminal.o
 *fill*         0x0000000020000f26        0x2 
 .bss           0x0000000020000f28       0x34 /usr/lib/gcc/arm-none-eabi/10.3.1/../../../arm-none-eabi/lib/thumb/v7e-m+fp/hard/libc.a(lib_a-mallocr.o)
                0x0000000020000f28                __malloc_top_pad
                0x0000000020000f2c                __malloc_current_mallinfo
                0x0000000020000f54                __malloc_max_sbrked_mem
                0x0000000020000f58                __malloc_max_total_mem
 .bss           0x0000000020000f5c        0x4 /usr/lib/gcc/arm-none-eabi/10.3.1/../../../arm-none-eabi/lib/thumb/v7e-m+fp/hard/libc.a(lib_a-reent.o)
                0x0000000020000f5c                errno
 .bss           0x0000000020000f60        0x4 /usr/lib/gcc/arm-none-eabi/10.3.1/../../../arm-none-eabi/lib/thumb/v7e-m+fp/hard/libnosys.a(sbrk.o)
 *(COMMON)
                0x0000000020000f64                . = ALIGN (0x4)
                0x0000000020000f64                _ebss = .

/DISCARD/
 *(.eh_frame)
                0x0000000020000f64                . = ALIGN (0x4)
                0x0000000020000f64                end = .
                0x0000000020010000                PROVIDE (_stack = (ORIGIN (ram) + LENGTH (ram)))
OUTPUT(BlackPill_terminal.elf elf32-littlearm)
LOAD linker stubs

.debug_info     0x0000000000000000    0x2cae8
 .debug_info    0x0000000000000000      0xb2c ./.obj/main.o
 .debug_info    0x0000000000000b2c      0x978 ./.obj/Time.o
 .debug_info    0x00000000000014a4      0x417 ./.obj/cli_queue.o
 .debug_info    0x00000000000018bb      0x5a8 ./.obj/cli_string.o
 .debug_info    0x0000000000001e63      0xc35 ./.obj/cli_input.o
 .debug_info    0x0000000000002a98      0x222 ./.obj/cli_log.o
 .debug_info    0x0000000000002cba      0x2f8 ./.obj/cli_time.o
 .debug_info    0x0000000000002fb2     0x1927 ./.obj/terminal.o
 .debug_info    0x00000000000048d9      0x2ed ./.obj/my_test_commands.o
 .debug_info    0x0000000000004bc6      0x20f ./libopencm3/lib/libopencm3_stm32f4.a(gpio_common_f0234.o)
 .debug_info    0x0000000000004dd5      0x950 ./libopencm3/lib/libopencm3_stm32f4.a(rcc_common_all.o)
 .debug_info    0x0000000000005725     0x1027 ./libopencm3/lib/libopencm3_stm32f4.a(rcc.o)
 .debug_info    0x000000000000674c     0x115b ./libopencm3/lib/libopencm3_stm32f4.a(timer_common_all.o)
 .debug_info    0x00000000000078a7      0x68e ./libopencm3/lib/libopencm3_stm32f4.a(usart_common_all.o)
 .debug_info    0x0000000000007f35      0x186 ./libopencm3/lib/libopencm3_stm32f4.a(usart_common_f124.o)
 .debug_info    0x00000000000080bb      0x2e6 ./libopencm3/lib/libopencm3_stm32f4.a(vector.o)
 .debug_info    0x00000000000083a1       0xd2 ./libopencm3/lib/libopencm3_stm32f4.a(scb.o)
 .debug_info    0x0000000000008473      0x22d ./libopencm3/lib/libopencm3_stm32f4.a(nvic.o)
 .debug_info    0x00000000000086a0      0x998 /usr/lib/gcc/arm-none-eabi/10.3.1/../../../arm-none-eabi/lib/thumb/v7e-m+fp/hard/libc.a(lib_a-malloc.o)
 .debug_info    0x0000000000009038      0xe95 /usr/lib/gcc/arm-none-eabi/10.3.1/../../../arm-none-eabi/lib/thumb/v7e-m+fp/hard/libc.a(lib_a-mallocr.o)
 .debug_info    0x0000000000009ecd      0x138 /usr/lib/gcc/arm-none-eabi/10.3.1/../../../arm-none-eabi/lib/thumb/v7e-m+fp/hard/libc.a(lib_a-memcmp.o)
 .debug_info    0x000000000000a005       0x26 /usr/lib/gcc/arm-none-eabi/10.3.1/../../../arm-none-eabi/lib/thumb/v7e-m+fp/hard/libc.a(lib_a-memcpy.o)
 .debug_info    0x000000000000a02b      0x942 /usr/lib/gcc/arm-none-eabi/10.3.1/../../../arm-none-eabi/lib/thumb/v7e-m+fp/hard/libc.a(lib_a-mlock.o)
 .debug_info    0x000000000000a96d      0x98e /usr/lib/gcc/arm-none-eabi/10.3.1/../../../arm-none-eabi/lib/thumb/v7e-m+fp/hard/libc.a(lib_a-sbrkr.o)
 .debug_info    0x000000000000b2fb      0xa8c /usr/lib/gcc/arm-none-eabi/10.3.1/../../../arm-none-eabi/lib/thumb/v7e-m+fp/hard/libc.a(lib_a-sprintf.o)
 .debug_info    0x000000000000bd87       0xc4 /usr/lib/gcc/arm-none-eabi/10.3.1/../../../arm-none-eabi/lib/thumb/v7e-m+fp/hard/libc.a(lib_a-strcpy.o)
 .debug_info    0x000000000000be4b     0x1066 /usr/lib/gcc/arm-none-eabi/10.3.1/../../../arm-none-eabi/lib/thumb/v7e-m+fp/hard/libc.a(lib_a-strtol.o)
 .debug_info    0x000000000000ceb1     0x1929 /usr/lib/gcc/arm-none-eabi/10.3.1/../../../arm-none-eabi/lib/thumb/v7e-m+fp/hard/libc.a(lib_a-svfprintf.o)
 .debug_info    0x000000000000e7da       0xb8 /usr/lib/gcc/arm-none-eabi/10.3.1/../../../arm-none-eabi/lib/thumb/v7e-m+fp/hard/libc.a(lib_a-ctype_.o)
 .debug_info    0x000000000000e892     0x1a53 /usr/lib/gcc/arm-none-eabi/10.3.1/../../../arm-none-eabi/lib/thumb/v7e-m+fp/hard/libc.a(lib_a-dtoa.o)
 .debug_info    0x00000000000102e5      0x914 /usr/lib/gcc/arm-none-eabi/10.3.1/../../../arm-none-eabi/lib/thumb/v7e-m+fp/hard/libc.a(lib_a-errno.o)
 .debug_info    0x0000000000010bf9      0xd10 /usr/lib/gcc/arm-none-eabi/10.3.1/../../../arm-none-eabi/lib/thumb/v7e-m+fp/hard/libc.a(lib_a-freer.o)
 .debug_info    0x0000000000011909      0x92a /usr/lib/gcc/arm-none-eabi/10.3.1/../../../arm-none-eabi/lib/thumb/v7e-m+fp/hard/libc.a(lib_a-impure.o)
 .debug_info    0x0000000000012233      0xc3e /usr/lib/gcc/arm-none-eabi/10.3.1/../../../arm-none-eabi/lib/thumb/v7e-m+fp/hard/libc.a(lib_a-localeconv.o)
 .debug_info    0x0000000000012e71       0x26 /usr/lib/gcc/arm-none-eabi/10.3.1/../../../arm-none-eabi/lib/thumb/v7e-m+fp/hard/libc.a(lib_a-memchr.o)
 .debug_info    0x0000000000012e97     0x20d2 /usr/lib/gcc/arm-none-eabi/10.3.1/../../../arm-none-eabi/lib/thumb/v7e-m+fp/hard/libc.a(lib_a-mprec.o)
 .debug_info    0x0000000000014f69      0xbda /usr/lib/gcc/arm-none-eabi/10.3.1/../../../arm-none-eabi/lib/thumb/v7e-m+fp/hard/libc.a(lib_a-reent.o)
 .debug_info    0x0000000000015b43       0x26 /usr/lib/gcc/arm-none-eabi/10.3.1/../../../arm-none-eabi/lib/thumb/v7e-m+fp/hard/libc.a(lib_a-strlen.o)
 .debug_info    0x0000000000015b69     0x1367 /usr/lib/gcc/arm-none-eabi/10.3.1/../../../arm-none-eabi/lib/thumb/v7e-m+fp/hard/libc.a(lib_a-svfiprintf.o)
 .debug_info    0x0000000000016ed0      0xa23 /usr/lib/gcc/arm-none-eabi/10.3.1/../../../arm-none-eabi/lib/thumb/v7e-m+fp/hard/libc.a(lib_a-assert.o)
 .debug_info    0x00000000000178f3      0xa81 /usr/lib/gcc/arm-none-eabi/10.3.1/../../../arm-none-eabi/lib/thumb/v7e-m+fp/hard/libc.a(lib_a-callocr.o)
 .debug_info    0x0000000000018374      0xa5f /usr/lib/gcc/arm-none-eabi/10.3.1/../../../arm-none-eabi/lib/thumb/v7e-m+fp/hard/libc.a(lib_a-fiprintf.o)
 .debug_info    0x0000000000018dd3      0xe0a /usr/lib/gcc/arm-none-eabi/10.3.1/../../../arm-none-eabi/lib/thumb/v7e-m+fp/hard/libc.a(lib_a-locale.o)
 .debug_info    0x0000000000019bdd      0xccd /usr/lib/gcc/arm-none-eabi/10.3.1/../../../arm-none-eabi/lib/thumb/v7e-m+fp/hard/libc.a(lib_a-mbtowc_r.o)
 .debug_info    0x000000000001a8aa      0x152 /usr/lib/gcc/arm-none-eabi/10.3.1/../../../arm-none-eabi/lib/thumb/v7e-m+fp/hard/libc.a(lib_a-memmove.o)
 .debug_info    0x000000000001a9fc      0x137 /usr/lib/gcc/arm-none-eabi/10.3.1/../../../arm-none-eabi/lib/thumb/v7e-m+fp/hard/libc.a(lib_a-memset.o)
 .debug_info    0x000000000001ab33      0xdb4 /usr/lib/gcc/arm-none-eabi/10.3.1/../../../arm-none-eabi/lib/thumb/v7e-m+fp/hard/libc.a(lib_a-reallocr.o)
 .debug_info    0x000000000001b8e7       0x26 /usr/lib/gcc/arm-none-eabi/10.3.1/../../../arm-none-eabi/lib/thumb/v7e-m+fp/hard/libc.a(lib_a-strcmp.o)
 .debug_info    0x000000000001b90d     0x1926 /usr/lib/gcc/arm-none-eabi/10.3.1/../../../arm-none-eabi/lib/thumb/v7e-m+fp/hard/libc.a(lib_a-vfiprintf.o)
 .debug_info    0x000000000001d233      0xc86 /usr/lib/gcc/arm-none-eabi/10.3.1/../../../arm-none-eabi/lib/thumb/v7e-m+fp/hard/libc.a(lib_a-wctomb_r.o)
 .debug_info    0x000000000001deb9      0x9c2 /usr/lib/gcc/arm-none-eabi/10.3.1/../../../arm-none-eabi/lib/thumb/v7e-m+fp/hard/libc.a(lib_a-wsetup.o)
 .debug_info    0x000000000001e87b       0xcb /usr/lib/gcc/arm-none-eabi/10.3.1/../../../arm-none-eabi/lib/thumb/v7e-m+fp/hard/libc.a(lib_a-abort.o)
 .debug_info    0x000000000001e946      0xbe3 /usr/lib/gcc/arm-none-eabi/10.3.1/../../../arm-none-eabi/lib/thumb/v7e-m+fp/hard/libc.a(lib_a-fflush.o)
 .debug_info    0x000000000001f529      0xf66 /usr/lib/gcc/arm-none-eabi/10.3.1/../../../arm-none-eabi/lib/thumb/v7e-m+fp/hard/libc.a(lib_a-findfp.o)
 .debug_info    0x000000000002048f      0xc12 /usr/lib/gcc/arm-none-eabi/10.3.1/../../../arm-none-eabi/lib/thumb/v7e-m+fp/hard/libc.a(lib_a-fputwc.o)
 .debug_info    0x00000000000210a1      0xcc4 /usr/lib/gcc/arm-none-eabi/10.3.1/../../../arm-none-eabi/lib/thumb/v7e-m+fp/hard/libc.a(lib_a-fvwrite.o)
 .debug_info    0x0000000000021d65      0xa66 /usr/lib/gcc/arm-none-eabi/10.3.1/../../../arm-none-eabi/lib/thumb/v7e-m+fp/hard/libc.a(lib_a-fwalk.o)
 .debug_info    0x00000000000227cb      0xdf2 /usr/lib/gcc/arm-none-eabi/10.3.1/../../../arm-none-eabi/lib/thumb/v7e-m+fp/hard/libc.a(lib_a-makebuf.o)
 .debug_info    0x00000000000235bd      0xf32 /usr/lib/gcc/arm-none-eabi/10.3.1/../../../arm-none-eabi/lib/thumb/v7e-m+fp/hard/libc.a(lib_a-signal.o)
 .debug_info    0x00000000000244ef      0x9d7 /usr/lib/gcc/arm-none-eabi/10.3.1/../../../arm-none-eabi/lib/thumb/v7e-m+fp/hard/libc.a(lib_a-signalr.o)
 .debug_info    0x0000000000024ec6      0xc22 /usr/lib/gcc/arm-none-eabi/10.3.1/../../../arm-none-eabi/lib/thumb/v7e-m+fp/hard/libc.a(lib_a-stdio.o)
 .debug_info    0x0000000000025ae8      0xa5f /usr/lib/gcc/arm-none-eabi/10.3.1/../../../arm-none-eabi/lib/thumb/v7e-m+fp/hard/libc.a(lib_a-wbuf.o)
 .debug_info    0x0000000000026547      0xd4f /usr/lib/gcc/arm-none-eabi/10.3.1/../../../arm-none-eabi/lib/thumb/v7e-m+fp/hard/libc.a(lib_a-wcrtomb.o)
 .debug_info    0x0000000000027296      0x9c0 /usr/lib/gcc/arm-none-eabi/10.3.1/../../../arm-none-eabi/lib/thumb/v7e-m+fp/hard/libc.a(lib_a-writer.o)
 .debug_info    0x0000000000027c56      0x96b /usr/lib/gcc/arm-none-eabi/10.3.1/../../../arm-none-eabi/lib/thumb/v7e-m+fp/hard/libc.a(lib_a-closer.o)
 .debug_info    0x00000000000285c1      0xb4a /usr/lib/gcc/arm-none-eabi/10.3.1/../../../arm-none-eabi/lib/thumb/v7e-m+fp/hard/libc.a(lib_a-fclose.o)
 .debug_info    0x000000000002910b      0xb83 /usr/lib/gcc/arm-none-eabi/10.3.1/../../../arm-none-eabi/lib/thumb/v7e-m+fp/hard/libc.a(lib_a-fstatr.o)
 .debug_info    0x0000000000029c8e      0x96b /usr/lib/gcc/arm-none-eabi/10.3.1/../../../arm-none-eabi/lib/thumb/v7e-m+fp/hard/libc.a(lib_a-isattyr.o)
 .debug_info    0x000000000002a5f9      0x9a1 /usr/lib/gcc/arm-none-eabi/10.3.1/../../../arm-none-eabi/lib/thumb/v7e-m+fp/hard/libc.a(lib_a-lseekr.o)
 .debug_info    0x000000000002af9a      0x9b9 /usr/lib/gcc/arm-none-eabi/10.3.1/../../../arm-none-eabi/lib/thumb/v7e-m+fp/hard/libc.a(lib_a-readr.o)
 .debug_info    0x000000000002b953       0x26 /usr/lib/gcc/arm-none-eabi/10.3.1/thumb/v7e-m+fp/hard/libgcc.a(_arm_addsubdf3.o)
 .debug_info    0x000000000002b979       0x26 /usr/lib/gcc/arm-none-eabi/10.3.1/thumb/v7e-m+fp/hard/libgcc.a(_arm_muldivdf3.o)
 .debug_info    0x000000000002b99f       0x26 /usr/lib/gcc/arm-none-eabi/10.3.1/thumb/v7e-m+fp/hard/libgcc.a(_arm_cmpdf2.o)
 .debug_info    0x000000000002b9c5       0x26 /usr/lib/gcc/arm-none-eabi/10.3.1/thumb/v7e-m+fp/hard/libgcc.a(_arm_unorddf2.o)
 .debug_info    0x000000000002b9eb       0x26 /usr/lib/gcc/arm-none-eabi/10.3.1/thumb/v7e-m+fp/hard/libgcc.a(_arm_fixdfsi.o)
 .debug_info    0x000000000002ba11       0x26 /usr/lib/gcc/arm-none-eabi/10.3.1/thumb/v7e-m+fp/hard/libgcc.a(_arm_addsubsf3.o)
 .debug_info    0x000000000002ba37       0x26 /usr/lib/gcc/arm-none-eabi/10.3.1/thumb/v7e-m+fp/hard/libgcc.a(_aeabi_uldivmod.o)
 .debug_info    0x000000000002ba5d      0x717 /usr/lib/gcc/arm-none-eabi/10.3.1/thumb/v7e-m+fp/hard/libgcc.a(_udivmoddi4.o)
 .debug_info    0x000000000002c174       0x26 /usr/lib/gcc/arm-none-eabi/10.3.1/thumb/v7e-m+fp/hard/libgcc.a(_dvmd_tls.o)
 .debug_info    0x000000000002c19a       0xb1 /usr/lib/gcc/arm-none-eabi/10.3.1/../../../arm-none-eabi/lib/thumb/v7e-m+fp/hard/libnosys.a(close.o)
 .debug_info    0x000000000002c24b      0x2cc /usr/lib/gcc/arm-none-eabi/10.3.1/../../../arm-none-eabi/lib/thumb/v7e-m+fp/hard/libnosys.a(fstat.o)
 .debug_info    0x000000000002c517       0x9c /usr/lib/gcc/arm-none-eabi/10.3.1/../../../arm-none-eabi/lib/thumb/v7e-m+fp/hard/libnosys.a(getpid.o)
 .debug_info    0x000000000002c5b3       0xb1 /usr/lib/gcc/arm-none-eabi/10.3.1/../../../arm-none-eabi/lib/thumb/v7e-m+fp/hard/libnosys.a(isatty.o)
 .debug_info    0x000000000002c664       0xbf /usr/lib/gcc/arm-none-eabi/10.3.1/../../../arm-none-eabi/lib/thumb/v7e-m+fp/hard/libnosys.a(kill.o)
 .debug_info    0x000000000002c723       0xd3 /usr/lib/gcc/arm-none-eabi/10.3.1/../../../arm-none-eabi/lib/thumb/v7e-m+fp/hard/libnosys.a(lseek.o)
 .debug_info    0x000000000002c7f6       0xd9 /usr/lib/gcc/arm-none-eabi/10.3.1/../../../arm-none-eabi/lib/thumb/v7e-m+fp/hard/libnosys.a(read.o)
 .debug_info    0x000000000002c8cf       0x9d /usr/lib/gcc/arm-none-eabi/10.3.1/../../../arm-none-eabi/lib/thumb/v7e-m+fp/hard/libnosys.a(sbrk.o)
 .debug_info    0x000000000002c96c       0xd9 /usr/lib/gcc/arm-none-eabi/10.3.1/../../../arm-none-eabi/lib/thumb/v7e-m+fp/hard/libnosys.a(write.o)
 .debug_info    0x000000000002ca45       0xa3 /usr/lib/gcc/arm-none-eabi/10.3.1/../../../arm-none-eabi/lib/thumb/v7e-m+fp/hard/libnosys.a(_exit.o)

.debug_abbrev   0x0000000000000000     0x9684
 .debug_abbrev  0x0000000000000000      0x1e8 ./.obj/main.o
 .debug_abbrev  0x00000000000001e8      0x10f ./.obj/Time.o
 .debug_abbrev  0x00000000000002f7      0x151 ./.obj/cli_queue.o
 .debug_abbrev  0x0000000000000448      0x172 ./.obj/cli_string.o
 .debug_abbrev  0x00000000000005ba      0x36c ./.obj/cli_input.o
 .debug_abbrev  0x0000000000000926      0x1c0 ./.obj/cli_log.o
 .debug_abbrev  0x0000000000000ae6      0x14c ./.obj/cli_time.o
 .debug_abbrev  0x0000000000000c32      0x49a ./.obj/terminal.o
 .debug_abbrev  0x00000000000010cc      0x136 ./.obj/my_test_commands.o
 .debug_abbrev  0x0000000000001202       0xbf ./libopencm3/lib/libopencm3_stm32f4.a(gpio_common_f0234.o)
 .debug_abbrev  0x00000000000012c1      0x177 ./libopencm3/lib/libopencm3_stm32f4.a(rcc_common_all.o)
 .debug_abbrev  0x0000000000001438      0x2ba ./libopencm3/lib/libopencm3_stm32f4.a(rcc.o)
 .debug_abbrev  0x00000000000016f2      0x1a1 ./libopencm3/lib/libopencm3_stm32f4.a(timer_common_all.o)
 .debug_abbrev  0x0000000000001893      0x16d ./libopencm3/lib/libopencm3_stm32f4.a(usart_common_all.o)
 .debug_abbrev  0x0000000000001a00       0xb5 ./libopencm3/lib/libopencm3_stm32f4.a(usart_common_f124.o)
 .debug_abbrev  0x0000000000001ab5      0x15b ./libopencm3/lib/libopencm3_stm32f4.a(vector.o)
 .debug_abbrev  0x0000000000001c10       0x89 ./libopencm3/lib/libopencm3_stm32f4.a(scb.o)
 .debug_abbrev  0x0000000000001c99       0xb5 ./libopencm3/lib/libopencm3_stm32f4.a(nvic.o)
 .debug_abbrev  0x0000000000001d4e      0x21d /usr/lib/gcc/arm-none-eabi/10.3.1/../../../arm-none-eabi/lib/thumb/v7e-m+fp/hard/libc.a(lib_a-malloc.o)
 .debug_abbrev  0x0000000000001f6b      0x2f6 /usr/lib/gcc/arm-none-eabi/10.3.1/../../../arm-none-eabi/lib/thumb/v7e-m+fp/hard/libc.a(lib_a-mallocr.o)
 .debug_abbrev  0x0000000000002261       0x8d /usr/lib/gcc/arm-none-eabi/10.3.1/../../../arm-none-eabi/lib/thumb/v7e-m+fp/hard/libc.a(lib_a-memcmp.o)
 .debug_abbrev  0x00000000000022ee       0x14 /usr/lib/gcc/arm-none-eabi/10.3.1/../../../arm-none-eabi/lib/thumb/v7e-m+fp/hard/libc.a(lib_a-memcpy.o)
 .debug_abbrev  0x0000000000002302      0x1f0 /usr/lib/gcc/arm-none-eabi/10.3.1/../../../arm-none-eabi/lib/thumb/v7e-m+fp/hard/libc.a(lib_a-mlock.o)
 .debug_abbrev  0x00000000000024f2      0x23d /usr/lib/gcc/arm-none-eabi/10.3.1/../../../arm-none-eabi/lib/thumb/v7e-m+fp/hard/libc.a(lib_a-sbrkr.o)
 .debug_abbrev  0x000000000000272f      0x27a /usr/lib/gcc/arm-none-eabi/10.3.1/../../../arm-none-eabi/lib/thumb/v7e-m+fp/hard/libc.a(lib_a-sprintf.o)
 .debug_abbrev  0x00000000000029a9       0x7b /usr/lib/gcc/arm-none-eabi/10.3.1/../../../arm-none-eabi/lib/thumb/v7e-m+fp/hard/libc.a(lib_a-strcpy.o)
 .debug_abbrev  0x0000000000002a24      0x314 /usr/lib/gcc/arm-none-eabi/10.3.1/../../../arm-none-eabi/lib/thumb/v7e-m+fp/hard/libc.a(lib_a-strtol.o)
 .debug_abbrev  0x0000000000002d38      0x3db /usr/lib/gcc/arm-none-eabi/10.3.1/../../../arm-none-eabi/lib/thumb/v7e-m+fp/hard/libc.a(lib_a-svfprintf.o)
 .debug_abbrev  0x0000000000003113       0x62 /usr/lib/gcc/arm-none-eabi/10.3.1/../../../arm-none-eabi/lib/thumb/v7e-m+fp/hard/libc.a(lib_a-ctype_.o)
 .debug_abbrev  0x0000000000003175      0x323 /usr/lib/gcc/arm-none-eabi/10.3.1/../../../arm-none-eabi/lib/thumb/v7e-m+fp/hard/libc.a(lib_a-dtoa.o)
 .debug_abbrev  0x0000000000003498      0x1be /usr/lib/gcc/arm-none-eabi/10.3.1/../../../arm-none-eabi/lib/thumb/v7e-m+fp/hard/libc.a(lib_a-errno.o)
 .debug_abbrev  0x0000000000003656      0x2b1 /usr/lib/gcc/arm-none-eabi/10.3.1/../../../arm-none-eabi/lib/thumb/v7e-m+fp/hard/libc.a(lib_a-freer.o)
 .debug_abbrev  0x0000000000003907      0x1b8 /usr/lib/gcc/arm-none-eabi/10.3.1/../../../arm-none-eabi/lib/thumb/v7e-m+fp/hard/libc.a(lib_a-impure.o)
 .debug_abbrev  0x0000000000003abf      0x26a /usr/lib/gcc/arm-none-eabi/10.3.1/../../../arm-none-eabi/lib/thumb/v7e-m+fp/hard/libc.a(lib_a-localeconv.o)
 .debug_abbrev  0x0000000000003d29       0x14 /usr/lib/gcc/arm-none-eabi/10.3.1/../../../arm-none-eabi/lib/thumb/v7e-m+fp/hard/libc.a(lib_a-memchr.o)
 .debug_abbrev  0x0000000000003d3d      0x4ae /usr/lib/gcc/arm-none-eabi/10.3.1/../../../arm-none-eabi/lib/thumb/v7e-m+fp/hard/libc.a(lib_a-mprec.o)
 .debug_abbrev  0x00000000000041eb      0x2f4 /usr/lib/gcc/arm-none-eabi/10.3.1/../../../arm-none-eabi/lib/thumb/v7e-m+fp/hard/libc.a(lib_a-reent.o)
 .debug_abbrev  0x00000000000044df       0x14 /usr/lib/gcc/arm-none-eabi/10.3.1/../../../arm-none-eabi/lib/thumb/v7e-m+fp/hard/libc.a(lib_a-strlen.o)
 .debug_abbrev  0x00000000000044f3      0x2fa /usr/lib/gcc/arm-none-eabi/10.3.1/../../../arm-none-eabi/lib/thumb/v7e-m+fp/hard/libc.a(lib_a-svfiprintf.o)
 .debug_abbrev  0x00000000000047ed      0x22a /usr/lib/gcc/arm-none-eabi/10.3.1/../../../arm-none-eabi/lib/thumb/v7e-m+fp/hard/libc.a(lib_a-assert.o)
 .debug_abbrev  0x0000000000004a17      0x241 /usr/lib/gcc/arm-none-eabi/10.3.1/../../../arm-none-eabi/lib/thumb/v7e-m+fp/hard/libc.a(lib_a-callocr.o)
 .debug_abbrev  0x0000000000004c58      0x255 /usr/lib/gcc/arm-none-eabi/10.3.1/../../../arm-none-eabi/lib/thumb/v7e-m+fp/hard/libc.a(lib_a-fiprintf.o)
 .debug_abbrev  0x0000000000004ead      0x2f5 /usr/lib/gcc/arm-none-eabi/10.3.1/../../../arm-none-eabi/lib/thumb/v7e-m+fp/hard/libc.a(lib_a-locale.o)
 .debug_abbrev  0x00000000000051a2      0x247 /usr/lib/gcc/arm-none-eabi/10.3.1/../../../arm-none-eabi/lib/thumb/v7e-m+fp/hard/libc.a(lib_a-mbtowc_r.o)
 .debug_abbrev  0x00000000000053e9       0xc0 /usr/lib/gcc/arm-none-eabi/10.3.1/../../../arm-none-eabi/lib/thumb/v7e-m+fp/hard/libc.a(lib_a-memmove.o)
 .debug_abbrev  0x00000000000054a9       0xb4 /usr/lib/gcc/arm-none-eabi/10.3.1/../../../arm-none-eabi/lib/thumb/v7e-m+fp/hard/libc.a(lib_a-memset.o)
 .debug_abbrev  0x000000000000555d      0x275 /usr/lib/gcc/arm-none-eabi/10.3.1/../../../arm-none-eabi/lib/thumb/v7e-m+fp/hard/libc.a(lib_a-reallocr.o)
 .debug_abbrev  0x00000000000057d2       0x14 /usr/lib/gcc/arm-none-eabi/10.3.1/../../../arm-none-eabi/lib/thumb/v7e-m+fp/hard/libc.a(lib_a-strcmp.o)
 .debug_abbrev  0x00000000000057e6      0x430 /usr/lib/gcc/arm-none-eabi/10.3.1/../../../arm-none-eabi/lib/thumb/v7e-m+fp/hard/libc.a(lib_a-vfiprintf.o)
 .debug_abbrev  0x0000000000005c16      0x251 /usr/lib/gcc/arm-none-eabi/10.3.1/../../../arm-none-eabi/lib/thumb/v7e-m+fp/hard/libc.a(lib_a-wctomb_r.o)
 .debug_abbrev  0x0000000000005e67      0x246 /usr/lib/gcc/arm-none-eabi/10.3.1/../../../arm-none-eabi/lib/thumb/v7e-m+fp/hard/libc.a(lib_a-wsetup.o)
 .debug_abbrev  0x00000000000060ad       0x80 /usr/lib/gcc/arm-none-eabi/10.3.1/../../../arm-none-eabi/lib/thumb/v7e-m+fp/hard/libc.a(lib_a-abort.o)
 .debug_abbrev  0x000000000000612d      0x336 /usr/lib/gcc/arm-none-eabi/10.3.1/../../../arm-none-eabi/lib/thumb/v7e-m+fp/hard/libc.a(lib_a-fflush.o)
 .debug_abbrev  0x0000000000006463      0x41a /usr/lib/gcc/arm-none-eabi/10.3.1/../../../arm-none-eabi/lib/thumb/v7e-m+fp/hard/libc.a(lib_a-findfp.o)
 .debug_abbrev  0x000000000000687d      0x34f /usr/lib/gcc/arm-none-eabi/10.3.1/../../../arm-none-eabi/lib/thumb/v7e-m+fp/hard/libc.a(lib_a-fputwc.o)
 .debug_abbrev  0x0000000000006bcc      0x25e /usr/lib/gcc/arm-none-eabi/10.3.1/../../../arm-none-eabi/lib/thumb/v7e-m+fp/hard/libc.a(lib_a-fvwrite.o)
 .debug_abbrev  0x0000000000006e2a      0x1fe /usr/lib/gcc/arm-none-eabi/10.3.1/../../../arm-none-eabi/lib/thumb/v7e-m+fp/hard/libc.a(lib_a-fwalk.o)
 .debug_abbrev  0x0000000000007028      0x2df /usr/lib/gcc/arm-none-eabi/10.3.1/../../../arm-none-eabi/lib/thumb/v7e-m+fp/hard/libc.a(lib_a-makebuf.o)
 .debug_abbrev  0x0000000000007307      0x321 /usr/lib/gcc/arm-none-eabi/10.3.1/../../../arm-none-eabi/lib/thumb/v7e-m+fp/hard/libc.a(lib_a-signal.o)
 .debug_abbrev  0x0000000000007628      0x242 /usr/lib/gcc/arm-none-eabi/10.3.1/../../../arm-none-eabi/lib/thumb/v7e-m+fp/hard/libc.a(lib_a-signalr.o)
 .debug_abbrev  0x000000000000786a      0x262 /usr/lib/gcc/arm-none-eabi/10.3.1/../../../arm-none-eabi/lib/thumb/v7e-m+fp/hard/libc.a(lib_a-stdio.o)
 .debug_abbrev  0x0000000000007acc      0x286 /usr/lib/gcc/arm-none-eabi/10.3.1/../../../arm-none-eabi/lib/thumb/v7e-m+fp/hard/libc.a(lib_a-wbuf.o)
 .debug_abbrev  0x0000000000007d52      0x254 /usr/lib/gcc/arm-none-eabi/10.3.1/../../../arm-none-eabi/lib/thumb/v7e-m+fp/hard/libc.a(lib_a-wcrtomb.o)
 .debug_abbrev  0x0000000000007fa6      0x217 /usr/lib/gcc/arm-none-eabi/10.3.1/../../../arm-none-eabi/lib/thumb/v7e-m+fp/hard/libc.a(lib_a-writer.o)
 .debug_abbrev  0x00000000000081bd      0x212 /usr/lib/gcc/arm-none-eabi/10.3.1/../../../arm-none-eabi/lib/thumb/v7e-m+fp/hard/libc.a(lib_a-closer.o)
 .debug_abbrev  0x00000000000083cf      0x2f1 /usr/lib/gcc/arm-none-eabi/10.3.1/../../../arm-none-eabi/lib/thumb/v7e-m+fp/hard/libc.a(lib_a-fclose.o)
 .debug_abbrev  0x00000000000086c0      0x226 /usr/lib/gcc/arm-none-eabi/10.3.1/../../../arm-none-eabi/lib/thumb/v7e-m+fp/hard/libc.a(lib_a-fstatr.o)
 .debug_abbrev  0x00000000000088e6      0x212 /usr/lib/gcc/arm-none-eabi/10.3.1/../../../arm-none-eabi/lib/thumb/v7e-m+fp/hard/libc.a(lib_a-isattyr.o)
 .debug_abbrev  0x0000000000008af8      0x226 /usr/lib/gcc/arm-none-eabi/10.3.1/../../../arm-none-eabi/lib/thumb/v7e-m+fp/hard/libc.a(lib_a-lseekr.o)
 .debug_abbrev  0x0000000000008d1e      0x212 /usr/lib/gcc/arm-none-eabi/10.3.1/../../../arm-none-eabi/lib/thumb/v7e-m+fp/hard/libc.a(lib_a-readr.o)
 .debug_abbrev  0x0000000000008f30       0x14 /usr/lib/gcc/arm-none-eabi/10.3.1/thumb/v7e-m+fp/hard/libgcc.a(_arm_addsubdf3.o)
 .debug_abbrev  0x0000000000008f44       0x14 /usr/lib/gcc/arm-none-eabi/10.3.1/thumb/v7e-m+fp/hard/libgcc.a(_arm_muldivdf3.o)
 .debug_abbrev  0x0000000000008f58       0x14 /usr/lib/gcc/arm-none-eabi/10.3.1/thumb/v7e-m+fp/hard/libgcc.a(_arm_cmpdf2.o)
 .debug_abbrev  0x0000000000008f6c       0x14 /usr/lib/gcc/arm-none-eabi/10.3.1/thumb/v7e-m+fp/hard/libgcc.a(_arm_unorddf2.o)
 .debug_abbrev  0x0000000000008f80       0x14 /usr/lib/gcc/arm-none-eabi/10.3.1/thumb/v7e-m+fp/hard/libgcc.a(_arm_fixdfsi.o)
 .debug_abbrev  0x0000000000008f94       0x14 /usr/lib/gcc/arm-none-eabi/10.3.1/thumb/v7e-m+fp/hard/libgcc.a(_arm_addsubsf3.o)
 .debug_abbrev  0x0000000000008fa8       0x14 /usr/lib/gcc/arm-none-eabi/10.3.1/thumb/v7e-m+fp/hard/libgcc.a(_aeabi_uldivmod.o)
 .debug_abbrev  0x0000000000008fbc      0x163 /usr/lib/gcc/arm-none-eabi/10.3.1/thumb/v7e-m+fp/hard/libgcc.a(_udivmoddi4.o)
 .debug_abbrev  0x000000000000911f       0x14 /usr/lib/gcc/arm-none-eabi/10.3.1/thumb/v7e-m+fp/hard/libgcc.a(_dvmd_tls.o)
 .debug_abbrev  0x0000000000009133       0x6d /usr/lib/gcc/arm-none-eabi/10.3.1/../../../arm-none-eabi/lib/thumb/v7e-m+fp/hard/libnosys.a(close.o)
 .debug_abbrev  0x00000000000091a0       0xcc /usr/lib/gcc/arm-none-eabi/10.3.1/../../../arm-none-eabi/lib/thumb/v7e-m+fp/hard/libnosys.a(fstat.o)
 .debug_abbrev  0x000000000000926c       0x59 /usr/lib/gcc/arm-none-eabi/10.3.1/../../../arm-none-eabi/lib/thumb/v7e-m+fp/hard/libnosys.a(getpid.o)
 .debug_abbrev  0x00000000000092c5       0x6d /usr/lib/gcc/arm-none-eabi/10.3.1/../../../arm-none-eabi/lib/thumb/v7e-m+fp/hard/libnosys.a(isatty.o)
 .debug_abbrev  0x0000000000009332       0x7e /usr/lib/gcc/arm-none-eabi/10.3.1/../../../arm-none-eabi/lib/thumb/v7e-m+fp/hard/libnosys.a(kill.o)
 .debug_abbrev  0x00000000000093b0       0x92 /usr/lib/gcc/arm-none-eabi/10.3.1/../../../arm-none-eabi/lib/thumb/v7e-m+fp/hard/libnosys.a(lseek.o)
 .debug_abbrev  0x0000000000009442       0x9b /usr/lib/gcc/arm-none-eabi/10.3.1/../../../arm-none-eabi/lib/thumb/v7e-m+fp/hard/libnosys.a(read.o)
 .debug_abbrev  0x00000000000094dd       0xa2 /usr/lib/gcc/arm-none-eabi/10.3.1/../../../arm-none-eabi/lib/thumb/v7e-m+fp/hard/libnosys.a(sbrk.o)
 .debug_abbrev  0x000000000000957f       0x9b /usr/lib/gcc/arm-none-eabi/10.3.1/../../../arm-none-eabi/lib/thumb/v7e-m+fp/hard/libnosys.a(write.o)
 .debug_abbrev  0x000000000000961a       0x6a /usr/lib/gcc/arm-none-eabi/10.3.1/../../../arm-none-eabi/lib/thumb/v7e-m+fp/hard/libnosys.a(_exit.o)

.debug_loc      0x0000000000000000    0x18f3a
 .debug_loc     0x0000000000000000       0xaa ./.obj/main.o
 .debug_loc     0x00000000000000aa      0x3c2 ./.obj/cli_queue.o
 .debug_loc     0x000000000000046c      0x627 ./.obj/cli_string.o
 .debug_loc     0x0000000000000a93      0x4b9 ./.obj/cli_input.o
 .debug_loc     0x0000000000000f4c       0xb2 ./.obj/cli_log.o
 .debug_loc     0x0000000000000ffe      0x35c ./.obj/cli_time.o
 .debug_loc     0x000000000000135a      0xacd ./.obj/terminal.o
 .debug_loc     0x0000000000001e27       0x30 ./.obj/my_test_commands.o
 .debug_loc     0x0000000000001e57      0x14f ./libopencm3/lib/libopencm3_stm32f4.a(gpio_common_f0234.o)
 .debug_loc     0x0000000000001fa6      0x120 ./libopencm3/lib/libopencm3_stm32f4.a(rcc_common_all.o)
 .debug_loc     0x00000000000020c6      0x867 ./libopencm3/lib/libopencm3_stm32f4.a(rcc.o)
 .debug_loc     0x000000000000292d      0x4b2 ./libopencm3/lib/libopencm3_stm32f4.a(timer_common_all.o)
 .debug_loc     0x0000000000002ddf      0x2cc ./libopencm3/lib/libopencm3_stm32f4.a(usart_common_all.o)
 .debug_loc     0x00000000000030ab       0x99 ./libopencm3/lib/libopencm3_stm32f4.a(usart_common_f124.o)
 .debug_loc     0x0000000000003144      0x128 ./libopencm3/lib/libopencm3_stm32f4.a(vector.o)
 .debug_loc     0x000000000000326c       0x25 ./libopencm3/lib/libopencm3_stm32f4.a(scb.o)
 .debug_loc     0x0000000000003291      0x14d ./libopencm3/lib/libopencm3_stm32f4.a(nvic.o)
 .debug_loc     0x00000000000033de       0x64 /usr/lib/gcc/arm-none-eabi/10.3.1/../../../arm-none-eabi/lib/thumb/v7e-m+fp/hard/libc.a(lib_a-malloc.o)
 .debug_loc     0x0000000000003442      0xea2 /usr/lib/gcc/arm-none-eabi/10.3.1/../../../arm-none-eabi/lib/thumb/v7e-m+fp/hard/libc.a(lib_a-mallocr.o)
 .debug_loc     0x00000000000042e4      0x1db /usr/lib/gcc/arm-none-eabi/10.3.1/../../../arm-none-eabi/lib/thumb/v7e-m+fp/hard/libc.a(lib_a-memcmp.o)
 .debug_loc     0x00000000000044bf       0x6c /usr/lib/gcc/arm-none-eabi/10.3.1/../../../arm-none-eabi/lib/thumb/v7e-m+fp/hard/libc.a(lib_a-sbrkr.o)
 .debug_loc     0x000000000000452b       0xb7 /usr/lib/gcc/arm-none-eabi/10.3.1/../../../arm-none-eabi/lib/thumb/v7e-m+fp/hard/libc.a(lib_a-sprintf.o)
 .debug_loc     0x00000000000045e2       0x25 /usr/lib/gcc/arm-none-eabi/10.3.1/../../../arm-none-eabi/lib/thumb/v7e-m+fp/hard/libc.a(lib_a-strcpy.o)
 .debug_loc     0x0000000000004607      0xaa7 /usr/lib/gcc/arm-none-eabi/10.3.1/../../../arm-none-eabi/lib/thumb/v7e-m+fp/hard/libc.a(lib_a-strtol.o)
 .debug_loc     0x00000000000050ae     0x340a /usr/lib/gcc/arm-none-eabi/10.3.1/../../../arm-none-eabi/lib/thumb/v7e-m+fp/hard/libc.a(lib_a-svfprintf.o)
 .debug_loc     0x00000000000084b8     0x3328 /usr/lib/gcc/arm-none-eabi/10.3.1/../../../arm-none-eabi/lib/thumb/v7e-m+fp/hard/libc.a(lib_a-dtoa.o)
 .debug_loc     0x000000000000b7e0      0x6cc /usr/lib/gcc/arm-none-eabi/10.3.1/../../../arm-none-eabi/lib/thumb/v7e-m+fp/hard/libc.a(lib_a-freer.o)
 .debug_loc     0x000000000000beac       0x6f /usr/lib/gcc/arm-none-eabi/10.3.1/../../../arm-none-eabi/lib/thumb/v7e-m+fp/hard/libc.a(lib_a-localeconv.o)
 .debug_loc     0x000000000000bf1b     0x2704 /usr/lib/gcc/arm-none-eabi/10.3.1/../../../arm-none-eabi/lib/thumb/v7e-m+fp/hard/libc.a(lib_a-mprec.o)
 .debug_loc     0x000000000000e61f      0x23e /usr/lib/gcc/arm-none-eabi/10.3.1/../../../arm-none-eabi/lib/thumb/v7e-m+fp/hard/libc.a(lib_a-reent.o)
 .debug_loc     0x000000000000e85d     0x1658 /usr/lib/gcc/arm-none-eabi/10.3.1/../../../arm-none-eabi/lib/thumb/v7e-m+fp/hard/libc.a(lib_a-svfiprintf.o)
 .debug_loc     0x000000000000feb5      0x185 /usr/lib/gcc/arm-none-eabi/10.3.1/../../../arm-none-eabi/lib/thumb/v7e-m+fp/hard/libc.a(lib_a-assert.o)
 .debug_loc     0x000000000001003a      0x2d6 /usr/lib/gcc/arm-none-eabi/10.3.1/../../../arm-none-eabi/lib/thumb/v7e-m+fp/hard/libc.a(lib_a-callocr.o)
 .debug_loc     0x0000000000010310       0xa6 /usr/lib/gcc/arm-none-eabi/10.3.1/../../../arm-none-eabi/lib/thumb/v7e-m+fp/hard/libc.a(lib_a-fiprintf.o)
 .debug_loc     0x00000000000103b6      0x27d /usr/lib/gcc/arm-none-eabi/10.3.1/../../../arm-none-eabi/lib/thumb/v7e-m+fp/hard/libc.a(lib_a-locale.o)
 .debug_loc     0x0000000000010633      0x21d /usr/lib/gcc/arm-none-eabi/10.3.1/../../../arm-none-eabi/lib/thumb/v7e-m+fp/hard/libc.a(lib_a-mbtowc_r.o)
 .debug_loc     0x0000000000010850      0x34f /usr/lib/gcc/arm-none-eabi/10.3.1/../../../arm-none-eabi/lib/thumb/v7e-m+fp/hard/libc.a(lib_a-memmove.o)
 .debug_loc     0x0000000000010b9f      0x22c /usr/lib/gcc/arm-none-eabi/10.3.1/../../../arm-none-eabi/lib/thumb/v7e-m+fp/hard/libc.a(lib_a-memset.o)
 .debug_loc     0x0000000000010dcb     0x17d9 /usr/lib/gcc/arm-none-eabi/10.3.1/../../../arm-none-eabi/lib/thumb/v7e-m+fp/hard/libc.a(lib_a-reallocr.o)
 .debug_loc     0x00000000000125a4     0x23a3 /usr/lib/gcc/arm-none-eabi/10.3.1/../../../arm-none-eabi/lib/thumb/v7e-m+fp/hard/libc.a(lib_a-vfiprintf.o)
 .debug_loc     0x0000000000014947      0x13a /usr/lib/gcc/arm-none-eabi/10.3.1/../../../arm-none-eabi/lib/thumb/v7e-m+fp/hard/libc.a(lib_a-wctomb_r.o)
 .debug_loc     0x0000000000014a81       0xe7 /usr/lib/gcc/arm-none-eabi/10.3.1/../../../arm-none-eabi/lib/thumb/v7e-m+fp/hard/libc.a(lib_a-wsetup.o)
 .debug_loc     0x0000000000014b68      0x441 /usr/lib/gcc/arm-none-eabi/10.3.1/../../../arm-none-eabi/lib/thumb/v7e-m+fp/hard/libc.a(lib_a-fflush.o)
 .debug_loc     0x0000000000014fa9      0x3cc /usr/lib/gcc/arm-none-eabi/10.3.1/../../../arm-none-eabi/lib/thumb/v7e-m+fp/hard/libc.a(lib_a-findfp.o)
 .debug_loc     0x0000000000015375      0x396 /usr/lib/gcc/arm-none-eabi/10.3.1/../../../arm-none-eabi/lib/thumb/v7e-m+fp/hard/libc.a(lib_a-fputwc.o)
 .debug_loc     0x000000000001570b      0x76c /usr/lib/gcc/arm-none-eabi/10.3.1/../../../arm-none-eabi/lib/thumb/v7e-m+fp/hard/libc.a(lib_a-fvwrite.o)
 .debug_loc     0x0000000000015e77      0x1bf /usr/lib/gcc/arm-none-eabi/10.3.1/../../../arm-none-eabi/lib/thumb/v7e-m+fp/hard/libc.a(lib_a-fwalk.o)
 .debug_loc     0x0000000000016036      0x39f /usr/lib/gcc/arm-none-eabi/10.3.1/../../../arm-none-eabi/lib/thumb/v7e-m+fp/hard/libc.a(lib_a-makebuf.o)
 .debug_loc     0x00000000000163d5      0x967 /usr/lib/gcc/arm-none-eabi/10.3.1/../../../arm-none-eabi/lib/thumb/v7e-m+fp/hard/libc.a(lib_a-signal.o)
 .debug_loc     0x0000000000016d3c       0xd0 /usr/lib/gcc/arm-none-eabi/10.3.1/../../../arm-none-eabi/lib/thumb/v7e-m+fp/hard/libc.a(lib_a-signalr.o)
 .debug_loc     0x0000000000016e0c      0x3a0 /usr/lib/gcc/arm-none-eabi/10.3.1/../../../arm-none-eabi/lib/thumb/v7e-m+fp/hard/libc.a(lib_a-stdio.o)
 .debug_loc     0x00000000000171ac      0x1b0 /usr/lib/gcc/arm-none-eabi/10.3.1/../../../arm-none-eabi/lib/thumb/v7e-m+fp/hard/libc.a(lib_a-wbuf.o)
 .debug_loc     0x000000000001735c      0x2b1 /usr/lib/gcc/arm-none-eabi/10.3.1/../../../arm-none-eabi/lib/thumb/v7e-m+fp/hard/libc.a(lib_a-wcrtomb.o)
 .debug_loc     0x000000000001760d       0xf7 /usr/lib/gcc/arm-none-eabi/10.3.1/../../../arm-none-eabi/lib/thumb/v7e-m+fp/hard/libc.a(lib_a-writer.o)
 .debug_loc     0x0000000000017704       0x6c /usr/lib/gcc/arm-none-eabi/10.3.1/../../../arm-none-eabi/lib/thumb/v7e-m+fp/hard/libc.a(lib_a-closer.o)
 .debug_loc     0x0000000000017770      0x2f1 /usr/lib/gcc/arm-none-eabi/10.3.1/../../../arm-none-eabi/lib/thumb/v7e-m+fp/hard/libc.a(lib_a-fclose.o)
 .debug_loc     0x0000000000017a61       0xab /usr/lib/gcc/arm-none-eabi/10.3.1/../../../arm-none-eabi/lib/thumb/v7e-m+fp/hard/libc.a(lib_a-fstatr.o)
 .debug_loc     0x0000000000017b0c       0x6c /usr/lib/gcc/arm-none-eabi/10.3.1/../../../arm-none-eabi/lib/thumb/v7e-m+fp/hard/libc.a(lib_a-isattyr.o)
 .debug_loc     0x0000000000017b78       0xf7 /usr/lib/gcc/arm-none-eabi/10.3.1/../../../arm-none-eabi/lib/thumb/v7e-m+fp/hard/libc.a(lib_a-lseekr.o)
 .debug_loc     0x0000000000017c6f       0xf7 /usr/lib/gcc/arm-none-eabi/10.3.1/../../../arm-none-eabi/lib/thumb/v7e-m+fp/hard/libc.a(lib_a-readr.o)
 .debug_loc     0x0000000000017d66     0x100f /usr/lib/gcc/arm-none-eabi/10.3.1/thumb/v7e-m+fp/hard/libgcc.a(_udivmoddi4.o)
 .debug_loc     0x0000000000018d75       0x25 /usr/lib/gcc/arm-none-eabi/10.3.1/../../../arm-none-eabi/lib/thumb/v7e-m+fp/hard/libnosys.a(close.o)
 .debug_loc     0x0000000000018d9a       0x25 /usr/lib/gcc/arm-none-eabi/10.3.1/../../../arm-none-eabi/lib/thumb/v7e-m+fp/hard/libnosys.a(fstat.o)
 .debug_loc     0x0000000000018dbf       0x25 /usr/lib/gcc/arm-none-eabi/10.3.1/../../../arm-none-eabi/lib/thumb/v7e-m+fp/hard/libnosys.a(isatty.o)
 .debug_loc     0x0000000000018de4       0x25 /usr/lib/gcc/arm-none-eabi/10.3.1/../../../arm-none-eabi/lib/thumb/v7e-m+fp/hard/libnosys.a(kill.o)
 .debug_loc     0x0000000000018e09       0x4a /usr/lib/gcc/arm-none-eabi/10.3.1/../../../arm-none-eabi/lib/thumb/v7e-m+fp/hard/libnosys.a(lseek.o)
 .debug_loc     0x0000000000018e53       0x4a /usr/lib/gcc/arm-none-eabi/10.3.1/../../../arm-none-eabi/lib/thumb/v7e-m+fp/hard/libnosys.a(read.o)
 .debug_loc     0x0000000000018e9d       0x3e /usr/lib/gcc/arm-none-eabi/10.3.1/../../../arm-none-eabi/lib/thumb/v7e-m+fp/hard/libnosys.a(sbrk.o)
 .debug_loc     0x0000000000018edb       0x4a /usr/lib/gcc/arm-none-eabi/10.3.1/../../../arm-none-eabi/lib/thumb/v7e-m+fp/hard/libnosys.a(write.o)
 .debug_loc     0x0000000000018f25       0x15 /usr/lib/gcc/arm-none-eabi/10.3.1/../../../arm-none-eabi/lib/thumb/v7e-m+fp/hard/libnosys.a(_exit.o)

.debug_aranges  0x0000000000000000     0x1278
 .debug_aranges
                0x0000000000000000       0x68 ./.obj/main.o
 .debug_aranges
                0x0000000000000068       0x38 ./.obj/Time.o
 .debug_aranges
                0x00000000000000a0       0x50 ./.obj/cli_queue.o
 .debug_aranges
                0x00000000000000f0       0x58 ./.obj/cli_string.o
 .debug_aranges
                0x0000000000000148       0xb8 ./.obj/cli_input.o
 .debug_aranges
                0x0000000000000200       0x48 ./.obj/cli_log.o
 .debug_aranges
                0x0000000000000248       0x48 ./.obj/cli_time.o
 .debug_aranges
                0x0000000000000290       0xe8 ./.obj/terminal.o
 .debug_aranges
                0x0000000000000378       0x30 ./.obj/my_test_commands.o
 .debug_aranges
                0x00000000000003a8       0x30 ./libopencm3/lib/libopencm3_stm32f4.a(gpio_common_f0234.o)
 .debug_aranges
                0x00000000000003d8       0x60 ./libopencm3/lib/libopencm3_stm32f4.a(rcc_common_all.o)
 .debug_aranges
                0x0000000000000438      0x110 ./libopencm3/lib/libopencm3_stm32f4.a(rcc.o)
 .debug_aranges
                0x0000000000000548      0x270 ./libopencm3/lib/libopencm3_stm32f4.a(timer_common_all.o)
 .debug_aranges
                0x00000000000007b8       0xf0 ./libopencm3/lib/libopencm3_stm32f4.a(usart_common_all.o)
 .debug_aranges
                0x00000000000008a8       0x40 ./libopencm3/lib/libopencm3_stm32f4.a(usart_common_f124.o)
 .debug_aranges
                0x00000000000008e8       0x30 ./libopencm3/lib/libopencm3_stm32f4.a(vector.o)
 .debug_aranges
                0x0000000000000918       0x30 ./libopencm3/lib/libopencm3_stm32f4.a(scb.o)
 .debug_aranges
                0x0000000000000948       0x60 ./libopencm3/lib/libopencm3_stm32f4.a(nvic.o)
 .debug_aranges
                0x00000000000009a8       0x20 /usr/lib/gcc/arm-none-eabi/10.3.1/../../../arm-none-eabi/lib/thumb/v7e-m+fp/hard/libc.a(lib_a-malloc.o)
 .debug_aranges
                0x00000000000009c8       0x20 /usr/lib/gcc/arm-none-eabi/10.3.1/../../../arm-none-eabi/lib/thumb/v7e-m+fp/hard/libc.a(lib_a-mallocr.o)
 .debug_aranges
                0x00000000000009e8       0x20 /usr/lib/gcc/arm-none-eabi/10.3.1/../../../arm-none-eabi/lib/thumb/v7e-m+fp/hard/libc.a(lib_a-memcmp.o)
 .debug_aranges
                0x0000000000000a08       0x20 /usr/lib/gcc/arm-none-eabi/10.3.1/../../../arm-none-eabi/lib/thumb/v7e-m+fp/hard/libc.a(lib_a-memcpy.o)
 .debug_aranges
                0x0000000000000a28       0x20 /usr/lib/gcc/arm-none-eabi/10.3.1/../../../arm-none-eabi/lib/thumb/v7e-m+fp/hard/libc.a(lib_a-mlock.o)
 .debug_aranges
                0x0000000000000a48       0x20 /usr/lib/gcc/arm-none-eabi/10.3.1/../../../arm-none-eabi/lib/thumb/v7e-m+fp/hard/libc.a(lib_a-sbrkr.o)
 .debug_aranges
                0x0000000000000a68       0x20 /usr/lib/gcc/arm-none-eabi/10.3.1/../../../arm-none-eabi/lib/thumb/v7e-m+fp/hard/libc.a(lib_a-sprintf.o)
 .debug_aranges
                0x0000000000000a88       0x20 /usr/lib/gcc/arm-none-eabi/10.3.1/../../../arm-none-eabi/lib/thumb/v7e-m+fp/hard/libc.a(lib_a-strcpy.o)
 .debug_aranges
                0x0000000000000aa8       0x20 /usr/lib/gcc/arm-none-eabi/10.3.1/../../../arm-none-eabi/lib/thumb/v7e-m+fp/hard/libc.a(lib_a-strtol.o)
 .debug_aranges
                0x0000000000000ac8       0x20 /usr/lib/gcc/arm-none-eabi/10.3.1/../../../arm-none-eabi/lib/thumb/v7e-m+fp/hard/libc.a(lib_a-svfprintf.o)
 .debug_aranges
                0x0000000000000ae8       0x18 /usr/lib/gcc/arm-none-eabi/10.3.1/../../../arm-none-eabi/lib/thumb/v7e-m+fp/hard/libc.a(lib_a-ctype_.o)
 .debug_aranges
                0x0000000000000b00       0x20 /usr/lib/gcc/arm-none-eabi/10.3.1/../../../arm-none-eabi/lib/thumb/v7e-m+fp/hard/libc.a(lib_a-dtoa.o)
 .debug_aranges
                0x0000000000000b20       0x20 /usr/lib/gcc/arm-none-eabi/10.3.1/../../../arm-none-eabi/lib/thumb/v7e-m+fp/hard/libc.a(lib_a-errno.o)
 .debug_aranges
                0x0000000000000b40       0x20 /usr/lib/gcc/arm-none-eabi/10.3.1/../../../arm-none-eabi/lib/thumb/v7e-m+fp/hard/libc.a(lib_a-freer.o)
 .debug_aranges
                0x0000000000000b60       0x18 /usr/lib/gcc/arm-none-eabi/10.3.1/../../../arm-none-eabi/lib/thumb/v7e-m+fp/hard/libc.a(lib_a-impure.o)
 .debug_aranges
                0x0000000000000b78       0x20 /usr/lib/gcc/arm-none-eabi/10.3.1/../../../arm-none-eabi/lib/thumb/v7e-m+fp/hard/libc.a(lib_a-localeconv.o)
 .debug_aranges
                0x0000000000000b98       0x20 /usr/lib/gcc/arm-none-eabi/10.3.1/../../../arm-none-eabi/lib/thumb/v7e-m+fp/hard/libc.a(lib_a-memchr.o)
 .debug_aranges
                0x0000000000000bb8       0x20 /usr/lib/gcc/arm-none-eabi/10.3.1/../../../arm-none-eabi/lib/thumb/v7e-m+fp/hard/libc.a(lib_a-mprec.o)
 .debug_aranges
                0x0000000000000bd8       0x20 /usr/lib/gcc/arm-none-eabi/10.3.1/../../../arm-none-eabi/lib/thumb/v7e-m+fp/hard/libc.a(lib_a-reent.o)
 .debug_aranges
                0x0000000000000bf8       0x20 /usr/lib/gcc/arm-none-eabi/10.3.1/../../../arm-none-eabi/lib/thumb/v7e-m+fp/hard/libc.a(lib_a-strlen.o)
 .debug_aranges
                0x0000000000000c18       0x20 /usr/lib/gcc/arm-none-eabi/10.3.1/../../../arm-none-eabi/lib/thumb/v7e-m+fp/hard/libc.a(lib_a-svfiprintf.o)
 .debug_aranges
                0x0000000000000c38       0x20 /usr/lib/gcc/arm-none-eabi/10.3.1/../../../arm-none-eabi/lib/thumb/v7e-m+fp/hard/libc.a(lib_a-assert.o)
 .debug_aranges
                0x0000000000000c58       0x20 /usr/lib/gcc/arm-none-eabi/10.3.1/../../../arm-none-eabi/lib/thumb/v7e-m+fp/hard/libc.a(lib_a-callocr.o)
 .debug_aranges
                0x0000000000000c78       0x20 /usr/lib/gcc/arm-none-eabi/10.3.1/../../../arm-none-eabi/lib/thumb/v7e-m+fp/hard/libc.a(lib_a-fiprintf.o)
 .debug_aranges
                0x0000000000000c98       0x20 /usr/lib/gcc/arm-none-eabi/10.3.1/../../../arm-none-eabi/lib/thumb/v7e-m+fp/hard/libc.a(lib_a-locale.o)
 .debug_aranges
                0x0000000000000cb8       0x20 /usr/lib/gcc/arm-none-eabi/10.3.1/../../../arm-none-eabi/lib/thumb/v7e-m+fp/hard/libc.a(lib_a-mbtowc_r.o)
 .debug_aranges
                0x0000000000000cd8       0x20 /usr/lib/gcc/arm-none-eabi/10.3.1/../../../arm-none-eabi/lib/thumb/v7e-m+fp/hard/libc.a(lib_a-memmove.o)
 .debug_aranges
                0x0000000000000cf8       0x20 /usr/lib/gcc/arm-none-eabi/10.3.1/../../../arm-none-eabi/lib/thumb/v7e-m+fp/hard/libc.a(lib_a-memset.o)
 .debug_aranges
                0x0000000000000d18       0x20 /usr/lib/gcc/arm-none-eabi/10.3.1/../../../arm-none-eabi/lib/thumb/v7e-m+fp/hard/libc.a(lib_a-reallocr.o)
 .debug_aranges
                0x0000000000000d38       0x20 /usr/lib/gcc/arm-none-eabi/10.3.1/../../../arm-none-eabi/lib/thumb/v7e-m+fp/hard/libc.a(lib_a-strcmp.o)
 .debug_aranges
                0x0000000000000d58       0x20 /usr/lib/gcc/arm-none-eabi/10.3.1/../../../arm-none-eabi/lib/thumb/v7e-m+fp/hard/libc.a(lib_a-vfiprintf.o)
 .debug_aranges
                0x0000000000000d78       0x20 /usr/lib/gcc/arm-none-eabi/10.3.1/../../../arm-none-eabi/lib/thumb/v7e-m+fp/hard/libc.a(lib_a-wctomb_r.o)
 .debug_aranges
                0x0000000000000d98       0x20 /usr/lib/gcc/arm-none-eabi/10.3.1/../../../arm-none-eabi/lib/thumb/v7e-m+fp/hard/libc.a(lib_a-wsetup.o)
 .debug_aranges
                0x0000000000000db8       0x20 /usr/lib/gcc/arm-none-eabi/10.3.1/../../../arm-none-eabi/lib/thumb/v7e-m+fp/hard/libc.a(lib_a-abort.o)
 .debug_aranges
                0x0000000000000dd8       0x20 /usr/lib/gcc/arm-none-eabi/10.3.1/../../../arm-none-eabi/lib/thumb/v7e-m+fp/hard/libc.a(lib_a-fflush.o)
 .debug_aranges
                0x0000000000000df8       0x20 /usr/lib/gcc/arm-none-eabi/10.3.1/../../../arm-none-eabi/lib/thumb/v7e-m+fp/hard/libc.a(lib_a-findfp.o)
 .debug_aranges
                0x0000000000000e18       0x20 /usr/lib/gcc/arm-none-eabi/10.3.1/../../../arm-none-eabi/lib/thumb/v7e-m+fp/hard/libc.a(lib_a-fputwc.o)
 .debug_aranges
                0x0000000000000e38       0x20 /usr/lib/gcc/arm-none-eabi/10.3.1/../../../arm-none-eabi/lib/thumb/v7e-m+fp/hard/libc.a(lib_a-fvwrite.o)
 .debug_aranges
                0x0000000000000e58       0x20 /usr/lib/gcc/arm-none-eabi/10.3.1/../../../arm-none-eabi/lib/thumb/v7e-m+fp/hard/libc.a(lib_a-fwalk.o)
 .debug_aranges
                0x0000000000000e78       0x20 /usr/lib/gcc/arm-none-eabi/10.3.1/../../../arm-none-eabi/lib/thumb/v7e-m+fp/hard/libc.a(lib_a-makebuf.o)
 .debug_aranges
                0x0000000000000e98       0x20 /usr/lib/gcc/arm-none-eabi/10.3.1/../../../arm-none-eabi/lib/thumb/v7e-m+fp/hard/libc.a(lib_a-signal.o)
 .debug_aranges
                0x0000000000000eb8       0x20 /usr/lib/gcc/arm-none-eabi/10.3.1/../../../arm-none-eabi/lib/thumb/v7e-m+fp/hard/libc.a(lib_a-signalr.o)
 .debug_aranges
                0x0000000000000ed8       0x20 /usr/lib/gcc/arm-none-eabi/10.3.1/../../../arm-none-eabi/lib/thumb/v7e-m+fp/hard/libc.a(lib_a-stdio.o)
 .debug_aranges
                0x0000000000000ef8       0x20 /usr/lib/gcc/arm-none-eabi/10.3.1/../../../arm-none-eabi/lib/thumb/v7e-m+fp/hard/libc.a(lib_a-wbuf.o)
 .debug_aranges
                0x0000000000000f18       0x20 /usr/lib/gcc/arm-none-eabi/10.3.1/../../../arm-none-eabi/lib/thumb/v7e-m+fp/hard/libc.a(lib_a-wcrtomb.o)
 .debug_aranges
                0x0000000000000f38       0x20 /usr/lib/gcc/arm-none-eabi/10.3.1/../../../arm-none-eabi/lib/thumb/v7e-m+fp/hard/libc.a(lib_a-writer.o)
 .debug_aranges
                0x0000000000000f58       0x20 /usr/lib/gcc/arm-none-eabi/10.3.1/../../../arm-none-eabi/lib/thumb/v7e-m+fp/hard/libc.a(lib_a-closer.o)
 .debug_aranges
                0x0000000000000f78       0x20 /usr/lib/gcc/arm-none-eabi/10.3.1/../../../arm-none-eabi/lib/thumb/v7e-m+fp/hard/libc.a(lib_a-fclose.o)
 .debug_aranges
                0x0000000000000f98       0x20 /usr/lib/gcc/arm-none-eabi/10.3.1/../../../arm-none-eabi/lib/thumb/v7e-m+fp/hard/libc.a(lib_a-fstatr.o)
 .debug_aranges
                0x0000000000000fb8       0x20 /usr/lib/gcc/arm-none-eabi/10.3.1/../../../arm-none-eabi/lib/thumb/v7e-m+fp/hard/libc.a(lib_a-isattyr.o)
 .debug_aranges
                0x0000000000000fd8       0x20 /usr/lib/gcc/arm-none-eabi/10.3.1/../../../arm-none-eabi/lib/thumb/v7e-m+fp/hard/libc.a(lib_a-lseekr.o)
 .debug_aranges
                0x0000000000000ff8       0x20 /usr/lib/gcc/arm-none-eabi/10.3.1/../../../arm-none-eabi/lib/thumb/v7e-m+fp/hard/libc.a(lib_a-readr.o)
 .debug_aranges
                0x0000000000001018       0x20 /usr/lib/gcc/arm-none-eabi/10.3.1/thumb/v7e-m+fp/hard/libgcc.a(_arm_addsubdf3.o)
 .debug_aranges
                0x0000000000001038       0x20 /usr/lib/gcc/arm-none-eabi/10.3.1/thumb/v7e-m+fp/hard/libgcc.a(_arm_muldivdf3.o)
 .debug_aranges
                0x0000000000001058       0x20 /usr/lib/gcc/arm-none-eabi/10.3.1/thumb/v7e-m+fp/hard/libgcc.a(_arm_cmpdf2.o)
 .debug_aranges
                0x0000000000001078       0x20 /usr/lib/gcc/arm-none-eabi/10.3.1/thumb/v7e-m+fp/hard/libgcc.a(_arm_unorddf2.o)
 .debug_aranges
                0x0000000000001098       0x20 /usr/lib/gcc/arm-none-eabi/10.3.1/thumb/v7e-m+fp/hard/libgcc.a(_arm_fixdfsi.o)
 .debug_aranges
                0x00000000000010b8       0x20 /usr/lib/gcc/arm-none-eabi/10.3.1/thumb/v7e-m+fp/hard/libgcc.a(_arm_addsubsf3.o)
 .debug_aranges
                0x00000000000010d8       0x20 /usr/lib/gcc/arm-none-eabi/10.3.1/thumb/v7e-m+fp/hard/libgcc.a(_aeabi_uldivmod.o)
 .debug_aranges
                0x00000000000010f8       0x20 /usr/lib/gcc/arm-none-eabi/10.3.1/thumb/v7e-m+fp/hard/libgcc.a(_udivmoddi4.o)
 .debug_aranges
                0x0000000000001118       0x20 /usr/lib/gcc/arm-none-eabi/10.3.1/thumb/v7e-m+fp/hard/libgcc.a(_dvmd_tls.o)
 .debug_aranges
                0x0000000000001138       0x20 /usr/lib/gcc/arm-none-eabi/10.3.1/../../../arm-none-eabi/lib/thumb/v7e-m+fp/hard/libnosys.a(close.o)
 .debug_aranges
                0x0000000000001158       0x20 /usr/lib/gcc/arm-none-eabi/10.3.1/../../../arm-none-eabi/lib/thumb/v7e-m+fp/hard/libnosys.a(fstat.o)
 .debug_aranges
                0x0000000000001178       0x20 /usr/lib/gcc/arm-none-eabi/10.3.1/../../../arm-none-eabi/lib/thumb/v7e-m+fp/hard/libnosys.a(getpid.o)
 .debug_aranges
                0x0000000000001198       0x20 /usr/lib/gcc/arm-none-eabi/10.3.1/../../../arm-none-eabi/lib/thumb/v7e-m+fp/hard/libnosys.a(isatty.o)
 .debug_aranges
                0x00000000000011b8       0x20 /usr/lib/gcc/arm-none-eabi/10.3.1/../../../arm-none-eabi/lib/thumb/v7e-m+fp/hard/libnosys.a(kill.o)
 .debug_aranges
                0x00000000000011d8       0x20 /usr/lib/gcc/arm-none-eabi/10.3.1/../../../arm-none-eabi/lib/thumb/v7e-m+fp/hard/libnosys.a(lseek.o)
 .debug_aranges
                0x00000000000011f8       0x20 /usr/lib/gcc/arm-none-eabi/10.3.1/../../../arm-none-eabi/lib/thumb/v7e-m+fp/hard/libnosys.a(read.o)
 .debug_aranges
                0x0000000000001218       0x20 /usr/lib/gcc/arm-none-eabi/10.3.1/../../../arm-none-eabi/lib/thumb/v7e-m+fp/hard/libnosys.a(sbrk.o)
 .debug_aranges
                0x0000000000001238       0x20 /usr/lib/gcc/arm-none-eabi/10.3.1/../../../arm-none-eabi/lib/thumb/v7e-m+fp/hard/libnosys.a(write.o)
 .debug_aranges
                0x0000000000001258       0x20 /usr/lib/gcc/arm-none-eabi/10.3.1/../../../arm-none-eabi/lib/thumb/v7e-m+fp/hard/libnosys.a(_exit.o)

.debug_ranges   0x0000000000000000     0x17e8
 .debug_ranges  0x0000000000000000       0x58 ./.obj/main.o
 .debug_ranges  0x0000000000000058       0x28 ./.obj/Time.o
 .debug_ranges  0x0000000000000080       0x58 ./.obj/cli_queue.o
 .debug_ranges  0x00000000000000d8       0x60 ./.obj/cli_string.o
 .debug_ranges  0x0000000000000138      0x1a0 ./.obj/cli_input.o
 .debug_ranges  0x00000000000002d8       0x58 ./.obj/cli_log.o
 .debug_ranges  0x0000000000000330       0x38 ./.obj/cli_time.o
 .debug_ranges  0x0000000000000368      0x1b0 ./.obj/terminal.o
 .debug_ranges  0x0000000000000518       0x20 ./.obj/my_test_commands.o
 .debug_ranges  0x0000000000000538       0x20 ./libopencm3/lib/libopencm3_stm32f4.a(gpio_common_f0234.o)
 .debug_ranges  0x0000000000000558       0x50 ./libopencm3/lib/libopencm3_stm32f4.a(rcc_common_all.o)
 .debug_ranges  0x00000000000005a8      0x148 ./libopencm3/lib/libopencm3_stm32f4.a(rcc.o)
 .debug_ranges  0x00000000000006f0      0x260 ./libopencm3/lib/libopencm3_stm32f4.a(timer_common_all.o)
 .debug_ranges  0x0000000000000950       0xe0 ./libopencm3/lib/libopencm3_stm32f4.a(usart_common_all.o)
 .debug_ranges  0x0000000000000a30       0x30 ./libopencm3/lib/libopencm3_stm32f4.a(usart_common_f124.o)
 .debug_ranges  0x0000000000000a60       0x20 ./libopencm3/lib/libopencm3_stm32f4.a(vector.o)
 .debug_ranges  0x0000000000000a80       0x20 ./libopencm3/lib/libopencm3_stm32f4.a(scb.o)
 .debug_ranges  0x0000000000000aa0       0x50 ./libopencm3/lib/libopencm3_stm32f4.a(nvic.o)
 .debug_ranges  0x0000000000000af0       0x50 /usr/lib/gcc/arm-none-eabi/10.3.1/../../../arm-none-eabi/lib/thumb/v7e-m+fp/hard/libc.a(lib_a-mallocr.o)
 .debug_ranges  0x0000000000000b40       0x10 /usr/lib/gcc/arm-none-eabi/10.3.1/../../../arm-none-eabi/lib/thumb/v7e-m+fp/hard/libc.a(lib_a-strcpy.o)
 .debug_ranges  0x0000000000000b50       0x58 /usr/lib/gcc/arm-none-eabi/10.3.1/../../../arm-none-eabi/lib/thumb/v7e-m+fp/hard/libc.a(lib_a-strtol.o)
 .debug_ranges  0x0000000000000ba8      0x178 /usr/lib/gcc/arm-none-eabi/10.3.1/../../../arm-none-eabi/lib/thumb/v7e-m+fp/hard/libc.a(lib_a-svfprintf.o)
 .debug_ranges  0x0000000000000d20       0x38 /usr/lib/gcc/arm-none-eabi/10.3.1/../../../arm-none-eabi/lib/thumb/v7e-m+fp/hard/libc.a(lib_a-dtoa.o)
 .debug_ranges  0x0000000000000d58      0x170 /usr/lib/gcc/arm-none-eabi/10.3.1/../../../arm-none-eabi/lib/thumb/v7e-m+fp/hard/libc.a(lib_a-mprec.o)
 .debug_ranges  0x0000000000000ec8       0x18 /usr/lib/gcc/arm-none-eabi/10.3.1/../../../arm-none-eabi/lib/thumb/v7e-m+fp/hard/libc.a(lib_a-reent.o)
 .debug_ranges  0x0000000000000ee0       0x40 /usr/lib/gcc/arm-none-eabi/10.3.1/../../../arm-none-eabi/lib/thumb/v7e-m+fp/hard/libc.a(lib_a-svfiprintf.o)
 .debug_ranges  0x0000000000000f20       0x48 /usr/lib/gcc/arm-none-eabi/10.3.1/../../../arm-none-eabi/lib/thumb/v7e-m+fp/hard/libc.a(lib_a-callocr.o)
 .debug_ranges  0x0000000000000f68       0x28 /usr/lib/gcc/arm-none-eabi/10.3.1/../../../arm-none-eabi/lib/thumb/v7e-m+fp/hard/libc.a(lib_a-locale.o)
 .debug_ranges  0x0000000000000f90      0x188 /usr/lib/gcc/arm-none-eabi/10.3.1/../../../arm-none-eabi/lib/thumb/v7e-m+fp/hard/libc.a(lib_a-reallocr.o)
 .debug_ranges  0x0000000000001118      0x1d8 /usr/lib/gcc/arm-none-eabi/10.3.1/../../../arm-none-eabi/lib/thumb/v7e-m+fp/hard/libc.a(lib_a-vfiprintf.o)
 .debug_ranges  0x00000000000012f0       0x28 /usr/lib/gcc/arm-none-eabi/10.3.1/../../../arm-none-eabi/lib/thumb/v7e-m+fp/hard/libc.a(lib_a-wsetup.o)
 .debug_ranges  0x0000000000001318       0xa0 /usr/lib/gcc/arm-none-eabi/10.3.1/../../../arm-none-eabi/lib/thumb/v7e-m+fp/hard/libc.a(lib_a-fflush.o)
 .debug_ranges  0x00000000000013b8       0xf8 /usr/lib/gcc/arm-none-eabi/10.3.1/../../../arm-none-eabi/lib/thumb/v7e-m+fp/hard/libc.a(lib_a-findfp.o)
 .debug_ranges  0x00000000000014b0       0x50 /usr/lib/gcc/arm-none-eabi/10.3.1/../../../arm-none-eabi/lib/thumb/v7e-m+fp/hard/libc.a(lib_a-fputwc.o)
 .debug_ranges  0x0000000000001500       0x28 /usr/lib/gcc/arm-none-eabi/10.3.1/../../../arm-none-eabi/lib/thumb/v7e-m+fp/hard/libc.a(lib_a-fvwrite.o)
 .debug_ranges  0x0000000000001528       0x80 /usr/lib/gcc/arm-none-eabi/10.3.1/../../../arm-none-eabi/lib/thumb/v7e-m+fp/hard/libc.a(lib_a-makebuf.o)
 .debug_ranges  0x00000000000015a8       0xc8 /usr/lib/gcc/arm-none-eabi/10.3.1/../../../arm-none-eabi/lib/thumb/v7e-m+fp/hard/libc.a(lib_a-signal.o)
 .debug_ranges  0x0000000000001670       0x20 /usr/lib/gcc/arm-none-eabi/10.3.1/../../../arm-none-eabi/lib/thumb/v7e-m+fp/hard/libc.a(lib_a-wbuf.o)
 .debug_ranges  0x0000000000001690       0x10 /usr/lib/gcc/arm-none-eabi/10.3.1/../../../arm-none-eabi/lib/thumb/v7e-m+fp/hard/libc.a(lib_a-wcrtomb.o)
 .debug_ranges  0x00000000000016a0       0x60 /usr/lib/gcc/arm-none-eabi/10.3.1/../../../arm-none-eabi/lib/thumb/v7e-m+fp/hard/libc.a(lib_a-fclose.o)
 .debug_ranges  0x0000000000001700       0xe8 /usr/lib/gcc/arm-none-eabi/10.3.1/thumb/v7e-m+fp/hard/libgcc.a(_udivmoddi4.o)

.debug_macro    0x0000000000000000     0x8764
 .debug_macro   0x0000000000000000      0x38c ./.obj/main.o
 .debug_macro   0x000000000000038c      0xa78 ./.obj/main.o
 .debug_macro   0x0000000000000e04       0x10 ./.obj/main.o
 .debug_macro   0x0000000000000e14       0x22 ./.obj/main.o
 .debug_macro   0x0000000000000e36       0x52 ./.obj/main.o
 .debug_macro   0x0000000000000e88       0x18 ./.obj/main.o
 .debug_macro   0x0000000000000ea0       0x5c ./.obj/main.o
 .debug_macro   0x0000000000000efc       0x35 ./.obj/main.o
 .debug_macro   0x0000000000000f31       0x34 ./.obj/main.o
 .debug_macro   0x0000000000000f65      0x174 ./.obj/main.o
 .debug_macro   0x00000000000010d9       0x16 ./.obj/main.o
 .debug_macro   0x00000000000010ef       0x43 ./.obj/main.o
 .debug_macro   0x0000000000001132       0x57 ./.obj/main.o
 .debug_macro   0x0000000000001189       0x34 ./.obj/main.o
 .debug_macro   0x00000000000011bd       0x10 ./.obj/main.o
 .debug_macro   0x00000000000011cd       0x52 ./.obj/main.o
 .debug_macro   0x000000000000121f      0x182 ./.obj/main.o
 .debug_macro   0x00000000000013a1      0x23b ./.obj/main.o
 .debug_macro   0x00000000000015dc       0x16 ./.obj/main.o
 .debug_macro   0x00000000000015f2       0x35 ./.obj/main.o
 .debug_macro   0x0000000000001627      0x333 ./.obj/main.o
 .debug_macro   0x000000000000195a       0x10 ./.obj/main.o
 .debug_macro   0x000000000000196a       0x10 ./.obj/main.o
 .debug_macro   0x000000000000197a       0x6a ./.obj/main.o
 .debug_macro   0x00000000000019e4       0xb2 ./.obj/main.o
 .debug_macro   0x0000000000001a96       0x16 ./.obj/main.o
 .debug_macro   0x0000000000001aac      0x129 ./.obj/main.o
 .debug_macro   0x0000000000001bd5       0x16 ./.obj/main.o
 .debug_macro   0x0000000000001beb       0x22 ./.obj/main.o
 .debug_macro   0x0000000000001c0d       0x16 ./.obj/main.o
 .debug_macro   0x0000000000001c23       0x16 ./.obj/main.o
 .debug_macro   0x0000000000001c39       0x10 ./.obj/main.o
 .debug_macro   0x0000000000001c49       0x10 ./.obj/main.o
 .debug_macro   0x0000000000001c59       0x2e ./.obj/main.o
 .debug_macro   0x0000000000001c87      0x102 ./.obj/main.o
 .debug_macro   0x0000000000001d89       0x16 ./.obj/main.o
 .debug_macro   0x0000000000001d9f      0x4fe ./.obj/main.o
 .debug_macro   0x000000000000229d       0x76 ./.obj/main.o
 .debug_macro   0x0000000000002313       0x1c ./.obj/main.o
 .debug_macro   0x000000000000232f      0x34e ./.obj/main.o
 .debug_macro   0x000000000000267d       0x22 ./.obj/main.o
 .debug_macro   0x000000000000269f       0xe8 ./.obj/main.o
 .debug_macro   0x0000000000002787      0x452 ./.obj/main.o
 .debug_macro   0x0000000000002bd9      0x286 ./.obj/main.o
 .debug_macro   0x0000000000002e5f       0x94 ./.obj/main.o
 .debug_macro   0x0000000000002ef3      0x29e ./.obj/main.o
 .debug_macro   0x0000000000003191       0xa0 ./.obj/main.o
 .debug_macro   0x0000000000003231      0xf7d ./.obj/main.o
 .debug_macro   0x00000000000041ae       0x52 ./.obj/main.o
 .debug_macro   0x0000000000004200       0x6e ./.obj/main.o
 .debug_macro   0x000000000000426e      0x22c ./.obj/main.o
 .debug_macro   0x000000000000449a       0x8e ./.obj/main.o
 .debug_macro   0x0000000000004528       0x46 ./.obj/main.o
 .debug_macro   0x000000000000456e      0xcea ./.obj/main.o
 .debug_macro   0x0000000000005258       0x76 ./.obj/main.o
 .debug_macro   0x00000000000052ce      0x37e ./.obj/main.o
 .debug_macro   0x000000000000564c       0xca ./.obj/main.o
 .debug_macro   0x0000000000005716       0x10 ./.obj/main.o
 .debug_macro   0x0000000000005726      0x118 ./.obj/main.o
 .debug_macro   0x000000000000583e       0x10 ./.obj/main.o
 .debug_macro   0x000000000000584e       0x3c ./.obj/main.o
 .debug_macro   0x000000000000588a       0x17 ./.obj/main.o
 .debug_macro   0x00000000000058a1       0xd8 ./.obj/Time.o
 .debug_macro   0x0000000000005979      0x280 ./.obj/Time.o
 .debug_macro   0x0000000000005bf9      0x1d2 ./.obj/cli_queue.o
 .debug_macro   0x0000000000005dcb      0x10e ./.obj/cli_queue.o
 .debug_macro   0x0000000000005ed9       0x8d ./.obj/cli_queue.o
 .debug_macro   0x0000000000005f66       0xe2 ./.obj/cli_queue.o
 .debug_macro   0x0000000000006048       0x1c ./.obj/cli_queue.o
 .debug_macro   0x0000000000006064       0x34 ./.obj/cli_queue.o
 .debug_macro   0x0000000000006098       0x10 ./.obj/cli_queue.o
 .debug_macro   0x00000000000060a8      0x1cc ./.obj/cli_string.o
 .debug_macro   0x0000000000006274      0x1e5 ./.obj/cli_input.o
 .debug_macro   0x0000000000006459       0x10 ./.obj/cli_input.o
 .debug_macro   0x0000000000006469      0x1df ./.obj/cli_log.o
 .debug_macro   0x0000000000006648      0x1d2 ./.obj/cli_time.o
 .debug_macro   0x000000000000681a      0x220 ./.obj/terminal.o
 .debug_macro   0x0000000000006a3a       0x10 ./.obj/terminal.o
 .debug_macro   0x0000000000006a4a      0x1d5 ./.obj/my_test_commands.o
 .debug_macro   0x0000000000006c1f       0x10 ./.obj/my_test_commands.o
 .debug_macro   0x0000000000006c2f       0x88 ./libopencm3/lib/libopencm3_stm32f4.a(gpio_common_f0234.o)
 .debug_macro   0x0000000000006cb7      0xa6c ./libopencm3/lib/libopencm3_stm32f4.a(gpio_common_f0234.o)
 .debug_macro   0x0000000000007723       0xa7 ./libopencm3/lib/libopencm3_stm32f4.a(rcc_common_all.o)
 .debug_macro   0x00000000000077ca       0xdb ./libopencm3/lib/libopencm3_stm32f4.a(rcc.o)
 .debug_macro   0x00000000000078a5       0x16 ./libopencm3/lib/libopencm3_stm32f4.a(rcc.o)
 .debug_macro   0x00000000000078bb       0x1c ./libopencm3/lib/libopencm3_stm32f4.a(rcc.o)
 .debug_macro   0x00000000000078d7      0x143 ./libopencm3/lib/libopencm3_stm32f4.a(rcc.o)
 .debug_macro   0x0000000000007a1a       0x10 ./libopencm3/lib/libopencm3_stm32f4.a(rcc.o)
 .debug_macro   0x0000000000007a2a       0xa7 ./libopencm3/lib/libopencm3_stm32f4.a(timer_common_all.o)
 .debug_macro   0x0000000000007ad1       0xc2 ./libopencm3/lib/libopencm3_stm32f4.a(usart_common_all.o)
 .debug_macro   0x0000000000007b93       0xc2 ./libopencm3/lib/libopencm3_stm32f4.a(usart_common_f124.o)
 .debug_macro   0x0000000000007c55       0x8a ./libopencm3/lib/libopencm3_stm32f4.a(vector.o)
 .debug_macro   0x0000000000007cdf      0x123 ./libopencm3/lib/libopencm3_stm32f4.a(scb.o)
 .debug_macro   0x0000000000007e02       0x5c ./libopencm3/lib/libopencm3_stm32f4.a(scb.o)
 .debug_macro   0x0000000000007e5e       0x86 ./libopencm3/lib/libopencm3_stm32f4.a(scb.o)
 .debug_macro   0x0000000000007ee4      0x356 ./libopencm3/lib/libopencm3_stm32f4.a(scb.o)
 .debug_macro   0x000000000000823a       0x6a ./libopencm3/lib/libopencm3_stm32f4.a(nvic.o)
 .debug_macro   0x00000000000082a4       0x68 ./libopencm3/lib/libopencm3_stm32f4.a(nvic.o)
 .debug_macro   0x000000000000830c      0x458 ./libopencm3/lib/libopencm3_stm32f4.a(nvic.o)

.debug_line     0x0000000000000000    0x14e3b
 .debug_line    0x0000000000000000      0x704 ./.obj/main.o
 .debug_line    0x0000000000000704      0x2aa ./.obj/Time.o
 .debug_line    0x00000000000009ae      0x443 ./.obj/cli_queue.o
 .debug_line    0x0000000000000df1      0x5cb ./.obj/cli_string.o
 .debug_line    0x00000000000013bc      0xa0c ./.obj/cli_input.o
 .debug_line    0x0000000000001dc8      0x429 ./.obj/cli_log.o
 .debug_line    0x00000000000021f1      0x37f ./.obj/cli_time.o
 .debug_line    0x0000000000002570      0xcf7 ./.obj/terminal.o
 .debug_line    0x0000000000003267      0x31f ./.obj/my_test_commands.o
 .debug_line    0x0000000000003586      0x38e ./libopencm3/lib/libopencm3_stm32f4.a(gpio_common_f0234.o)
 .debug_line    0x0000000000003914      0x305 ./libopencm3/lib/libopencm3_stm32f4.a(rcc_common_all.o)
 .debug_line    0x0000000000003c19      0x992 ./libopencm3/lib/libopencm3_stm32f4.a(rcc.o)
 .debug_line    0x00000000000045ab      0xfa5 ./libopencm3/lib/libopencm3_stm32f4.a(timer_common_all.o)
 .debug_line    0x0000000000005550      0x580 ./libopencm3/lib/libopencm3_stm32f4.a(usart_common_all.o)
 .debug_line    0x0000000000005ad0      0x2ab ./libopencm3/lib/libopencm3_stm32f4.a(usart_common_f124.o)
 .debug_line    0x0000000000005d7b      0x322 ./libopencm3/lib/libopencm3_stm32f4.a(vector.o)
 .debug_line    0x000000000000609d      0x241 ./libopencm3/lib/libopencm3_stm32f4.a(scb.o)
 .debug_line    0x00000000000062de      0x27f ./libopencm3/lib/libopencm3_stm32f4.a(nvic.o)
 .debug_line    0x000000000000655d      0x15f /usr/lib/gcc/arm-none-eabi/10.3.1/../../../arm-none-eabi/lib/thumb/v7e-m+fp/hard/libc.a(lib_a-malloc.o)
 .debug_line    0x00000000000066bc      0x8bc /usr/lib/gcc/arm-none-eabi/10.3.1/../../../arm-none-eabi/lib/thumb/v7e-m+fp/hard/libc.a(lib_a-mallocr.o)
 .debug_line    0x0000000000006f78      0x17a /usr/lib/gcc/arm-none-eabi/10.3.1/../../../arm-none-eabi/lib/thumb/v7e-m+fp/hard/libc.a(lib_a-memcmp.o)
 .debug_line    0x00000000000070f2       0xbe /usr/lib/gcc/arm-none-eabi/10.3.1/../../../arm-none-eabi/lib/thumb/v7e-m+fp/hard/libc.a(lib_a-memcpy.o)
 .debug_line    0x00000000000071b0      0x13e /usr/lib/gcc/arm-none-eabi/10.3.1/../../../arm-none-eabi/lib/thumb/v7e-m+fp/hard/libc.a(lib_a-mlock.o)
 .debug_line    0x00000000000072ee      0x183 /usr/lib/gcc/arm-none-eabi/10.3.1/../../../arm-none-eabi/lib/thumb/v7e-m+fp/hard/libc.a(lib_a-sbrkr.o)
 .debug_line    0x0000000000007471      0x209 /usr/lib/gcc/arm-none-eabi/10.3.1/../../../arm-none-eabi/lib/thumb/v7e-m+fp/hard/libc.a(lib_a-sprintf.o)
 .debug_line    0x000000000000767a       0xb9 /usr/lib/gcc/arm-none-eabi/10.3.1/../../../arm-none-eabi/lib/thumb/v7e-m+fp/hard/libc.a(lib_a-strcpy.o)
 .debug_line    0x0000000000007733      0x41d /usr/lib/gcc/arm-none-eabi/10.3.1/../../../arm-none-eabi/lib/thumb/v7e-m+fp/hard/libc.a(lib_a-strtol.o)
 .debug_line    0x0000000000007b50     0x16df /usr/lib/gcc/arm-none-eabi/10.3.1/../../../arm-none-eabi/lib/thumb/v7e-m+fp/hard/libc.a(lib_a-svfprintf.o)
 .debug_line    0x000000000000922f       0x5e /usr/lib/gcc/arm-none-eabi/10.3.1/../../../arm-none-eabi/lib/thumb/v7e-m+fp/hard/libc.a(lib_a-ctype_.o)
 .debug_line    0x000000000000928d     0x14e6 /usr/lib/gcc/arm-none-eabi/10.3.1/../../../arm-none-eabi/lib/thumb/v7e-m+fp/hard/libc.a(lib_a-dtoa.o)
 .debug_line    0x000000000000a773      0x109 /usr/lib/gcc/arm-none-eabi/10.3.1/../../../arm-none-eabi/lib/thumb/v7e-m+fp/hard/libc.a(lib_a-errno.o)
 .debug_line    0x000000000000a87c      0x4fb /usr/lib/gcc/arm-none-eabi/10.3.1/../../../arm-none-eabi/lib/thumb/v7e-m+fp/hard/libc.a(lib_a-freer.o)
 .debug_line    0x000000000000ad77       0xe4 /usr/lib/gcc/arm-none-eabi/10.3.1/../../../arm-none-eabi/lib/thumb/v7e-m+fp/hard/libc.a(lib_a-impure.o)
 .debug_line    0x000000000000ae5b      0x1bf /usr/lib/gcc/arm-none-eabi/10.3.1/../../../arm-none-eabi/lib/thumb/v7e-m+fp/hard/libc.a(lib_a-localeconv.o)
 .debug_line    0x000000000000b01a       0xa4 /usr/lib/gcc/arm-none-eabi/10.3.1/../../../arm-none-eabi/lib/thumb/v7e-m+fp/hard/libc.a(lib_a-memchr.o)
 .debug_line    0x000000000000b0be     0x1691 /usr/lib/gcc/arm-none-eabi/10.3.1/../../../arm-none-eabi/lib/thumb/v7e-m+fp/hard/libc.a(lib_a-mprec.o)
 .debug_line    0x000000000000c74f      0x28d /usr/lib/gcc/arm-none-eabi/10.3.1/../../../arm-none-eabi/lib/thumb/v7e-m+fp/hard/libc.a(lib_a-reent.o)
 .debug_line    0x000000000000c9dc       0xaf /usr/lib/gcc/arm-none-eabi/10.3.1/../../../arm-none-eabi/lib/thumb/v7e-m+fp/hard/libc.a(lib_a-strlen.o)
 .debug_line    0x000000000000ca8b      0xea6 /usr/lib/gcc/arm-none-eabi/10.3.1/../../../arm-none-eabi/lib/thumb/v7e-m+fp/hard/libc.a(lib_a-svfiprintf.o)
 .debug_line    0x000000000000d931      0x194 /usr/lib/gcc/arm-none-eabi/10.3.1/../../../arm-none-eabi/lib/thumb/v7e-m+fp/hard/libc.a(lib_a-assert.o)
 .debug_line    0x000000000000dac5      0x1ac /usr/lib/gcc/arm-none-eabi/10.3.1/../../../arm-none-eabi/lib/thumb/v7e-m+fp/hard/libc.a(lib_a-callocr.o)
 .debug_line    0x000000000000dc71      0x19d /usr/lib/gcc/arm-none-eabi/10.3.1/../../../arm-none-eabi/lib/thumb/v7e-m+fp/hard/libc.a(lib_a-fiprintf.o)
 .debug_line    0x000000000000de0e      0x267 /usr/lib/gcc/arm-none-eabi/10.3.1/../../../arm-none-eabi/lib/thumb/v7e-m+fp/hard/libc.a(lib_a-locale.o)
 .debug_line    0x000000000000e075      0x213 /usr/lib/gcc/arm-none-eabi/10.3.1/../../../arm-none-eabi/lib/thumb/v7e-m+fp/hard/libc.a(lib_a-mbtowc_r.o)
 .debug_line    0x000000000000e288      0x1ee /usr/lib/gcc/arm-none-eabi/10.3.1/../../../arm-none-eabi/lib/thumb/v7e-m+fp/hard/libc.a(lib_a-memmove.o)
 .debug_line    0x000000000000e476      0x1bf /usr/lib/gcc/arm-none-eabi/10.3.1/../../../arm-none-eabi/lib/thumb/v7e-m+fp/hard/libc.a(lib_a-memset.o)
 .debug_line    0x000000000000e635      0x7c2 /usr/lib/gcc/arm-none-eabi/10.3.1/../../../arm-none-eabi/lib/thumb/v7e-m+fp/hard/libc.a(lib_a-reallocr.o)
 .debug_line    0x000000000000edf7      0x137 /usr/lib/gcc/arm-none-eabi/10.3.1/../../../arm-none-eabi/lib/thumb/v7e-m+fp/hard/libc.a(lib_a-strcmp.o)
 .debug_line    0x000000000000ef2e     0x127b /usr/lib/gcc/arm-none-eabi/10.3.1/../../../arm-none-eabi/lib/thumb/v7e-m+fp/hard/libc.a(lib_a-vfiprintf.o)
 .debug_line    0x00000000000101a9      0x1fd /usr/lib/gcc/arm-none-eabi/10.3.1/../../../arm-none-eabi/lib/thumb/v7e-m+fp/hard/libc.a(lib_a-wctomb_r.o)
 .debug_line    0x00000000000103a6      0x2fa /usr/lib/gcc/arm-none-eabi/10.3.1/../../../arm-none-eabi/lib/thumb/v7e-m+fp/hard/libc.a(lib_a-wsetup.o)
 .debug_line    0x00000000000106a0      0x109 /usr/lib/gcc/arm-none-eabi/10.3.1/../../../arm-none-eabi/lib/thumb/v7e-m+fp/hard/libc.a(lib_a-abort.o)
 .debug_line    0x00000000000107a9      0x461 /usr/lib/gcc/arm-none-eabi/10.3.1/../../../arm-none-eabi/lib/thumb/v7e-m+fp/hard/libc.a(lib_a-fflush.o)
 .debug_line    0x0000000000010c0a      0x555 /usr/lib/gcc/arm-none-eabi/10.3.1/../../../arm-none-eabi/lib/thumb/v7e-m+fp/hard/libc.a(lib_a-findfp.o)
 .debug_line    0x000000000001115f      0x32b /usr/lib/gcc/arm-none-eabi/10.3.1/../../../arm-none-eabi/lib/thumb/v7e-m+fp/hard/libc.a(lib_a-fputwc.o)
 .debug_line    0x000000000001148a      0x5e4 /usr/lib/gcc/arm-none-eabi/10.3.1/../../../arm-none-eabi/lib/thumb/v7e-m+fp/hard/libc.a(lib_a-fvwrite.o)
 .debug_line    0x0000000000011a6e      0x29e /usr/lib/gcc/arm-none-eabi/10.3.1/../../../arm-none-eabi/lib/thumb/v7e-m+fp/hard/libc.a(lib_a-fwalk.o)
 .debug_line    0x0000000000011d0c      0x3bb /usr/lib/gcc/arm-none-eabi/10.3.1/../../../arm-none-eabi/lib/thumb/v7e-m+fp/hard/libc.a(lib_a-makebuf.o)
 .debug_line    0x00000000000120c7      0x652 /usr/lib/gcc/arm-none-eabi/10.3.1/../../../arm-none-eabi/lib/thumb/v7e-m+fp/hard/libc.a(lib_a-signal.o)
 .debug_line    0x0000000000012719      0x1aa /usr/lib/gcc/arm-none-eabi/10.3.1/../../../arm-none-eabi/lib/thumb/v7e-m+fp/hard/libc.a(lib_a-signalr.o)
 .debug_line    0x00000000000128c3      0x231 /usr/lib/gcc/arm-none-eabi/10.3.1/../../../arm-none-eabi/lib/thumb/v7e-m+fp/hard/libc.a(lib_a-stdio.o)
 .debug_line    0x0000000000012af4      0x2d5 /usr/lib/gcc/arm-none-eabi/10.3.1/../../../arm-none-eabi/lib/thumb/v7e-m+fp/hard/libc.a(lib_a-wbuf.o)
 .debug_line    0x0000000000012dc9      0x299 /usr/lib/gcc/arm-none-eabi/10.3.1/../../../arm-none-eabi/lib/thumb/v7e-m+fp/hard/libc.a(lib_a-wcrtomb.o)
 .debug_line    0x0000000000013062      0x189 /usr/lib/gcc/arm-none-eabi/10.3.1/../../../arm-none-eabi/lib/thumb/v7e-m+fp/hard/libc.a(lib_a-writer.o)
 .debug_line    0x00000000000131eb      0x183 /usr/lib/gcc/arm-none-eabi/10.3.1/../../../arm-none-eabi/lib/thumb/v7e-m+fp/hard/libc.a(lib_a-closer.o)
 .debug_line    0x000000000001336e      0x2ae /usr/lib/gcc/arm-none-eabi/10.3.1/../../../arm-none-eabi/lib/thumb/v7e-m+fp/hard/libc.a(lib_a-fclose.o)
 .debug_line    0x000000000001361c      0x203 /usr/lib/gcc/arm-none-eabi/10.3.1/../../../arm-none-eabi/lib/thumb/v7e-m+fp/hard/libc.a(lib_a-fstatr.o)
 .debug_line    0x000000000001381f      0x184 /usr/lib/gcc/arm-none-eabi/10.3.1/../../../arm-none-eabi/lib/thumb/v7e-m+fp/hard/libc.a(lib_a-isattyr.o)
 .debug_line    0x00000000000139a3      0x189 /usr/lib/gcc/arm-none-eabi/10.3.1/../../../arm-none-eabi/lib/thumb/v7e-m+fp/hard/libc.a(lib_a-lseekr.o)
 .debug_line    0x0000000000013b2c      0x188 /usr/lib/gcc/arm-none-eabi/10.3.1/../../../arm-none-eabi/lib/thumb/v7e-m+fp/hard/libc.a(lib_a-readr.o)
 .debug_line    0x0000000000013cb4      0x186 /usr/lib/gcc/arm-none-eabi/10.3.1/thumb/v7e-m+fp/hard/libgcc.a(_arm_addsubdf3.o)
 .debug_line    0x0000000000013e3a      0x19b /usr/lib/gcc/arm-none-eabi/10.3.1/thumb/v7e-m+fp/hard/libgcc.a(_arm_muldivdf3.o)
 .debug_line    0x0000000000013fd5       0xbd /usr/lib/gcc/arm-none-eabi/10.3.1/thumb/v7e-m+fp/hard/libgcc.a(_arm_cmpdf2.o)
 .debug_line    0x0000000000014092       0x6e /usr/lib/gcc/arm-none-eabi/10.3.1/thumb/v7e-m+fp/hard/libgcc.a(_arm_unorddf2.o)
 .debug_line    0x0000000000014100       0x79 /usr/lib/gcc/arm-none-eabi/10.3.1/thumb/v7e-m+fp/hard/libgcc.a(_arm_fixdfsi.o)
 .debug_line    0x0000000000014179      0x11a /usr/lib/gcc/arm-none-eabi/10.3.1/thumb/v7e-m+fp/hard/libgcc.a(_arm_addsubsf3.o)
 .debug_line    0x0000000000014293       0x60 /usr/lib/gcc/arm-none-eabi/10.3.1/thumb/v7e-m+fp/hard/libgcc.a(_aeabi_uldivmod.o)
 .debug_line    0x00000000000142f3      0x5ae /usr/lib/gcc/arm-none-eabi/10.3.1/thumb/v7e-m+fp/hard/libgcc.a(_udivmoddi4.o)
 .debug_line    0x00000000000148a1       0x60 /usr/lib/gcc/arm-none-eabi/10.3.1/thumb/v7e-m+fp/hard/libgcc.a(_dvmd_tls.o)
 .debug_line    0x0000000000014901       0x70 /usr/lib/gcc/arm-none-eabi/10.3.1/../../../arm-none-eabi/lib/thumb/v7e-m+fp/hard/libnosys.a(close.o)
 .debug_line    0x0000000000014971      0x13a /usr/lib/gcc/arm-none-eabi/10.3.1/../../../arm-none-eabi/lib/thumb/v7e-m+fp/hard/libnosys.a(fstat.o)
 .debug_line    0x0000000000014aab       0x70 /usr/lib/gcc/arm-none-eabi/10.3.1/../../../arm-none-eabi/lib/thumb/v7e-m+fp/hard/libnosys.a(getpid.o)
 .debug_line    0x0000000000014b1b       0x71 /usr/lib/gcc/arm-none-eabi/10.3.1/../../../arm-none-eabi/lib/thumb/v7e-m+fp/hard/libnosys.a(isatty.o)
 .debug_line    0x0000000000014b8c       0x6f /usr/lib/gcc/arm-none-eabi/10.3.1/../../../arm-none-eabi/lib/thumb/v7e-m+fp/hard/libnosys.a(kill.o)
 .debug_line    0x0000000000014bfb       0x71 /usr/lib/gcc/arm-none-eabi/10.3.1/../../../arm-none-eabi/lib/thumb/v7e-m+fp/hard/libnosys.a(lseek.o)
 .debug_line    0x0000000000014c6c       0x70 /usr/lib/gcc/arm-none-eabi/10.3.1/../../../arm-none-eabi/lib/thumb/v7e-m+fp/hard/libnosys.a(read.o)
 .debug_line    0x0000000000014cdc       0x79 /usr/lib/gcc/arm-none-eabi/10.3.1/../../../arm-none-eabi/lib/thumb/v7e-m+fp/hard/libnosys.a(sbrk.o)
 .debug_line    0x0000000000014d55       0x71 /usr/lib/gcc/arm-none-eabi/10.3.1/../../../arm-none-eabi/lib/thumb/v7e-m+fp/hard/libnosys.a(write.o)
 .debug_line    0x0000000000014dc6       0x75 /usr/lib/gcc/arm-none-eabi/10.3.1/../../../arm-none-eabi/lib/thumb/v7e-m+fp/hard/libnosys.a(_exit.o)

.debug_str      0x0000000000000000    0x1cdd3
 .debug_str     0x0000000000000000    0x16bea ./.obj/main.o
                                      0x16e64 (size before relaxing)
 .debug_str     0x0000000000016bea      0x3bd ./.obj/Time.o
                                       0xe105 (size before relaxing)
 .debug_str     0x0000000000016fa7       0xdf ./.obj/cli_queue.o
                                       0x73ea (size before relaxing)
 .debug_str     0x0000000000017086      0x103 ./.obj/cli_string.o
                                       0x7426 (size before relaxing)
 .debug_str     0x0000000000017189      0x276 ./.obj/cli_input.o
                                       0x7675 (size before relaxing)
 .debug_str     0x00000000000173ff       0x9a ./.obj/cli_log.o
                                       0x73e5 (size before relaxing)
 .debug_str     0x0000000000017499      0x111 ./.obj/cli_time.o
                                       0x741a (size before relaxing)
 .debug_str     0x00000000000175aa      0x436 ./.obj/terminal.o
                                       0x7b5b (size before relaxing)
 .debug_str     0x00000000000179e0       0x36 ./.obj/my_test_commands.o
                                       0x7487 (size before relaxing)
 .debug_str     0x0000000000017a16      0x1bc ./libopencm3/lib/libopencm3_stm32f4.a(gpio_common_f0234.o)
                                       0x61c5 (size before relaxing)
 .debug_str     0x0000000000017bd2      0x186 ./libopencm3/lib/libopencm3_stm32f4.a(rcc_common_all.o)
                                       0x9562 (size before relaxing)
 .debug_str     0x0000000000017d58      0xba2 ./libopencm3/lib/libopencm3_stm32f4.a(rcc.o)
                                       0x9dd7 (size before relaxing)
 .debug_str     0x00000000000188fa      0xa43 ./libopencm3/lib/libopencm3_stm32f4.a(timer_common_all.o)
                                       0xd811 (size before relaxing)
 .debug_str     0x000000000001933d      0x21b ./libopencm3/lib/libopencm3_stm32f4.a(usart_common_all.o)
                                       0xa02e (size before relaxing)
 .debug_str     0x0000000000019558       0x1e ./libopencm3/lib/libopencm3_stm32f4.a(usart_common_f124.o)
                                       0x9d9a (size before relaxing)
 .debug_str     0x0000000000019576      0xe72 ./libopencm3/lib/libopencm3_stm32f4.a(vector.o)
                                       0x6a6d (size before relaxing)
 .debug_str     0x000000000001a3e8      0x144 ./libopencm3/lib/libopencm3_stm32f4.a(scb.o)
                                       0x7fc4 (size before relaxing)
 .debug_str     0x000000000001a52c       0xb2 ./libopencm3/lib/libopencm3_stm32f4.a(nvic.o)
                                       0x5cd8 (size before relaxing)
 .debug_str     0x000000000001a5de      0x485 /usr/lib/gcc/arm-none-eabi/10.3.1/../../../arm-none-eabi/lib/thumb/v7e-m+fp/hard/libc.a(lib_a-malloc.o)
                                        0x596 (size before relaxing)
 .debug_str     0x000000000001aa63      0x21d /usr/lib/gcc/arm-none-eabi/10.3.1/../../../arm-none-eabi/lib/thumb/v7e-m+fp/hard/libc.a(lib_a-mallocr.o)
                                        0x787 (size before relaxing)
 .debug_str     0x000000000001ac80       0x91 /usr/lib/gcc/arm-none-eabi/10.3.1/../../../arm-none-eabi/lib/thumb/v7e-m+fp/hard/libc.a(lib_a-memcmp.o)
                                        0x1a7 (size before relaxing)
 .debug_str     0x000000000001ad11       0xb1 /usr/lib/gcc/arm-none-eabi/10.3.1/../../../arm-none-eabi/lib/thumb/v7e-m+fp/hard/libc.a(lib_a-memcpy.o)
 .debug_str     0x000000000001adc2       0x4c /usr/lib/gcc/arm-none-eabi/10.3.1/../../../arm-none-eabi/lib/thumb/v7e-m+fp/hard/libc.a(lib_a-mlock.o)
                                        0x58f (size before relaxing)
 .debug_str     0x000000000001ae0e       0x99 /usr/lib/gcc/arm-none-eabi/10.3.1/../../../arm-none-eabi/lib/thumb/v7e-m+fp/hard/libc.a(lib_a-sbrkr.o)
                                        0x579 (size before relaxing)
 .debug_str     0x000000000001aea7       0xad /usr/lib/gcc/arm-none-eabi/10.3.1/../../../arm-none-eabi/lib/thumb/v7e-m+fp/hard/libc.a(lib_a-sprintf.o)
                                        0x5af (size before relaxing)
 .debug_str     0x000000000001af54       0x3c /usr/lib/gcc/arm-none-eabi/10.3.1/../../../arm-none-eabi/lib/thumb/v7e-m+fp/hard/libc.a(lib_a-strcpy.o)
                                        0x1ad (size before relaxing)
 .debug_str     0x000000000001af90      0x1d4 /usr/lib/gcc/arm-none-eabi/10.3.1/../../../arm-none-eabi/lib/thumb/v7e-m+fp/hard/libc.a(lib_a-strtol.o)
                                        0x7dd (size before relaxing)
 .debug_str     0x000000000001b164      0x203 /usr/lib/gcc/arm-none-eabi/10.3.1/../../../arm-none-eabi/lib/thumb/v7e-m+fp/hard/libc.a(lib_a-svfprintf.o)
                                        0x99d (size before relaxing)
 .debug_str     0x000000000001b367       0x8f /usr/lib/gcc/arm-none-eabi/10.3.1/../../../arm-none-eabi/lib/thumb/v7e-m+fp/hard/libc.a(lib_a-ctype_.o)
                                        0x19f (size before relaxing)
 .debug_str     0x000000000001b3f6      0x1cd /usr/lib/gcc/arm-none-eabi/10.3.1/../../../arm-none-eabi/lib/thumb/v7e-m+fp/hard/libc.a(lib_a-dtoa.o)
                                        0x949 (size before relaxing)
 .debug_str     0x000000000001b5c3       0x8e /usr/lib/gcc/arm-none-eabi/10.3.1/../../../arm-none-eabi/lib/thumb/v7e-m+fp/hard/libc.a(lib_a-errno.o)
                                        0x56a (size before relaxing)
 .debug_str     0x000000000001b651       0x34 /usr/lib/gcc/arm-none-eabi/10.3.1/../../../arm-none-eabi/lib/thumb/v7e-m+fp/hard/libc.a(lib_a-freer.o)
                                        0x6d1 (size before relaxing)
 .debug_str     0x000000000001b685       0x3f /usr/lib/gcc/arm-none-eabi/10.3.1/../../../arm-none-eabi/lib/thumb/v7e-m+fp/hard/libc.a(lib_a-impure.o)
                                        0x582 (size before relaxing)
 .debug_str     0x000000000001b6c4       0xbe /usr/lib/gcc/arm-none-eabi/10.3.1/../../../arm-none-eabi/lib/thumb/v7e-m+fp/hard/libc.a(lib_a-localeconv.o)
                                        0x7b7 (size before relaxing)
 .debug_str     0x000000000001b782       0x3c /usr/lib/gcc/arm-none-eabi/10.3.1/../../../arm-none-eabi/lib/thumb/v7e-m+fp/hard/libc.a(lib_a-memchr.o)
                                         0xaa (size before relaxing)
 .debug_str     0x000000000001b7be       0x9e /usr/lib/gcc/arm-none-eabi/10.3.1/../../../arm-none-eabi/lib/thumb/v7e-m+fp/hard/libc.a(lib_a-mprec.o)
                                        0x887 (size before relaxing)
 .debug_str     0x000000000001b85c       0x5e /usr/lib/gcc/arm-none-eabi/10.3.1/../../../arm-none-eabi/lib/thumb/v7e-m+fp/hard/libc.a(lib_a-reent.o)
                                        0x5a1 (size before relaxing)
 .debug_str     0x000000000001b8ba       0x42 /usr/lib/gcc/arm-none-eabi/10.3.1/../../../arm-none-eabi/lib/thumb/v7e-m+fp/hard/libc.a(lib_a-strlen.o)
                                         0xb0 (size before relaxing)
 .debug_str     0x000000000001b8fc       0x30 /usr/lib/gcc/arm-none-eabi/10.3.1/../../../arm-none-eabi/lib/thumb/v7e-m+fp/hard/libc.a(lib_a-svfiprintf.o)
                                        0x8e2 (size before relaxing)
 .debug_str     0x000000000001b92c       0x53 /usr/lib/gcc/arm-none-eabi/10.3.1/../../../arm-none-eabi/lib/thumb/v7e-m+fp/hard/libc.a(lib_a-assert.o)
                                        0x5a5 (size before relaxing)
 .debug_str     0x000000000001b97f       0x16 /usr/lib/gcc/arm-none-eabi/10.3.1/../../../arm-none-eabi/lib/thumb/v7e-m+fp/hard/libc.a(lib_a-callocr.o)
                                        0x5bb (size before relaxing)
 .debug_str     0x000000000001b995       0x4e /usr/lib/gcc/arm-none-eabi/10.3.1/../../../arm-none-eabi/lib/thumb/v7e-m+fp/hard/libc.a(lib_a-fiprintf.o)
                                        0x5b2 (size before relaxing)
 .debug_str     0x000000000001b9e3       0x74 /usr/lib/gcc/arm-none-eabi/10.3.1/../../../arm-none-eabi/lib/thumb/v7e-m+fp/hard/libc.a(lib_a-locale.o)
                                        0x7d2 (size before relaxing)
 .debug_str     0x000000000001ba57       0x55 /usr/lib/gcc/arm-none-eabi/10.3.1/../../../arm-none-eabi/lib/thumb/v7e-m+fp/hard/libc.a(lib_a-mbtowc_r.o)
                                        0x797 (size before relaxing)
 .debug_str     0x000000000001baac       0x5f /usr/lib/gcc/arm-none-eabi/10.3.1/../../../arm-none-eabi/lib/thumb/v7e-m+fp/hard/libc.a(lib_a-memmove.o)
                                        0x1da (size before relaxing)
 .debug_str     0x000000000001bb0b       0x41 /usr/lib/gcc/arm-none-eabi/10.3.1/../../../arm-none-eabi/lib/thumb/v7e-m+fp/hard/libc.a(lib_a-memset.o)
                                        0x1bb (size before relaxing)
 .debug_str     0x000000000001bb4c       0x48 /usr/lib/gcc/arm-none-eabi/10.3.1/../../../arm-none-eabi/lib/thumb/v7e-m+fp/hard/libc.a(lib_a-reallocr.o)
                                        0x663 (size before relaxing)
 .debug_str     0x000000000001bb94       0x42 /usr/lib/gcc/arm-none-eabi/10.3.1/../../../arm-none-eabi/lib/thumb/v7e-m+fp/hard/libc.a(lib_a-strcmp.o)
                                         0xb0 (size before relaxing)
 .debug_str     0x000000000001bbd6       0x6a /usr/lib/gcc/arm-none-eabi/10.3.1/../../../arm-none-eabi/lib/thumb/v7e-m+fp/hard/libc.a(lib_a-vfiprintf.o)
                                        0x91c (size before relaxing)
 .debug_str     0x000000000001bc40       0x56 /usr/lib/gcc/arm-none-eabi/10.3.1/../../../arm-none-eabi/lib/thumb/v7e-m+fp/hard/libc.a(lib_a-wctomb_r.o)
                                        0x79e (size before relaxing)
 .debug_str     0x000000000001bc96       0x40 /usr/lib/gcc/arm-none-eabi/10.3.1/../../../arm-none-eabi/lib/thumb/v7e-m+fp/hard/libc.a(lib_a-wsetup.o)
                                        0x5a1 (size before relaxing)
 .debug_str     0x000000000001bcd6       0x3f /usr/lib/gcc/arm-none-eabi/10.3.1/../../../arm-none-eabi/lib/thumb/v7e-m+fp/hard/libc.a(lib_a-abort.o)
                                        0x1aa (size before relaxing)
 .debug_str     0x000000000001bd15       0x63 /usr/lib/gcc/arm-none-eabi/10.3.1/../../../arm-none-eabi/lib/thumb/v7e-m+fp/hard/libc.a(lib_a-fflush.o)
                                        0x5e2 (size before relaxing)
 .debug_str     0x000000000001bd78      0x14f /usr/lib/gcc/arm-none-eabi/10.3.1/../../../arm-none-eabi/lib/thumb/v7e-m+fp/hard/libc.a(lib_a-findfp.o)
                                        0x6d6 (size before relaxing)
 .debug_str     0x000000000001bec7       0x5b /usr/lib/gcc/arm-none-eabi/10.3.1/../../../arm-none-eabi/lib/thumb/v7e-m+fp/hard/libc.a(lib_a-fputwc.o)
                                        0x5e7 (size before relaxing)
 .debug_str     0x000000000001bf22       0x43 /usr/lib/gcc/arm-none-eabi/10.3.1/../../../arm-none-eabi/lib/thumb/v7e-m+fp/hard/libc.a(lib_a-fvwrite.o)
                                        0x614 (size before relaxing)
 .debug_str     0x000000000001bf65       0x41 /usr/lib/gcc/arm-none-eabi/10.3.1/../../../arm-none-eabi/lib/thumb/v7e-m+fp/hard/libc.a(lib_a-fwalk.o)
                                        0x587 (size before relaxing)
 .debug_str     0x000000000001bfa6      0x142 /usr/lib/gcc/arm-none-eabi/10.3.1/../../../arm-none-eabi/lib/thumb/v7e-m+fp/hard/libc.a(lib_a-makebuf.o)
                                        0x703 (size before relaxing)
 .debug_str     0x000000000001c0e8       0xf7 /usr/lib/gcc/arm-none-eabi/10.3.1/../../../arm-none-eabi/lib/thumb/v7e-m+fp/hard/libc.a(lib_a-signal.o)
                                        0x5f1 (size before relaxing)
 .debug_str     0x000000000001c1df       0x42 /usr/lib/gcc/arm-none-eabi/10.3.1/../../../arm-none-eabi/lib/thumb/v7e-m+fp/hard/libc.a(lib_a-signalr.o)
                                        0x57e (size before relaxing)
 .debug_str     0x000000000001c221       0x92 /usr/lib/gcc/arm-none-eabi/10.3.1/../../../arm-none-eabi/lib/thumb/v7e-m+fp/hard/libc.a(lib_a-stdio.o)
                                        0x5d6 (size before relaxing)
 .debug_str     0x000000000001c2b3       0x39 /usr/lib/gcc/arm-none-eabi/10.3.1/../../../arm-none-eabi/lib/thumb/v7e-m+fp/hard/libc.a(lib_a-wbuf.o)
                                        0x5a6 (size before relaxing)
 .debug_str     0x000000000001c2ec       0x44 /usr/lib/gcc/arm-none-eabi/10.3.1/../../../arm-none-eabi/lib/thumb/v7e-m+fp/hard/libc.a(lib_a-wcrtomb.o)
                                        0x79d (size before relaxing)
 .debug_str     0x000000000001c330       0x33 /usr/lib/gcc/arm-none-eabi/10.3.1/../../../arm-none-eabi/lib/thumb/v7e-m+fp/hard/libc.a(lib_a-writer.o)
                                        0x576 (size before relaxing)
 .debug_str     0x000000000001c363       0x33 /usr/lib/gcc/arm-none-eabi/10.3.1/../../../arm-none-eabi/lib/thumb/v7e-m+fp/hard/libc.a(lib_a-closer.o)
                                        0x566 (size before relaxing)
 .debug_str     0x000000000001c396       0x44 /usr/lib/gcc/arm-none-eabi/10.3.1/../../../arm-none-eabi/lib/thumb/v7e-m+fp/hard/libc.a(lib_a-fclose.o)
                                        0x5cf (size before relaxing)
 .debug_str     0x000000000001c3da       0x40 /usr/lib/gcc/arm-none-eabi/10.3.1/../../../arm-none-eabi/lib/thumb/v7e-m+fp/hard/libc.a(lib_a-fstatr.o)
                                        0x6b8 (size before relaxing)
 .debug_str     0x000000000001c41a       0x3c /usr/lib/gcc/arm-none-eabi/10.3.1/../../../arm-none-eabi/lib/thumb/v7e-m+fp/hard/libc.a(lib_a-isattyr.o)
                                        0x570 (size before relaxing)
 .debug_str     0x000000000001c456       0x3a /usr/lib/gcc/arm-none-eabi/10.3.1/../../../arm-none-eabi/lib/thumb/v7e-m+fp/hard/libc.a(lib_a-lseekr.o)
                                        0x574 (size before relaxing)
 .debug_str     0x000000000001c490       0x32 /usr/lib/gcc/arm-none-eabi/10.3.1/../../../arm-none-eabi/lib/thumb/v7e-m+fp/hard/libc.a(lib_a-readr.o)
                                        0x574 (size before relaxing)
 .debug_str     0x000000000001c4c2       0x9f /usr/lib/gcc/arm-none-eabi/10.3.1/thumb/v7e-m+fp/hard/libgcc.a(_arm_addsubdf3.o)
                                         0xab (size before relaxing)
 .debug_str     0x000000000001c561       0xab /usr/lib/gcc/arm-none-eabi/10.3.1/thumb/v7e-m+fp/hard/libgcc.a(_arm_muldivdf3.o)
 .debug_str     0x000000000001c561       0xab /usr/lib/gcc/arm-none-eabi/10.3.1/thumb/v7e-m+fp/hard/libgcc.a(_arm_cmpdf2.o)
 .debug_str     0x000000000001c561       0xab /usr/lib/gcc/arm-none-eabi/10.3.1/thumb/v7e-m+fp/hard/libgcc.a(_arm_unorddf2.o)
 .debug_str     0x000000000001c561       0xab /usr/lib/gcc/arm-none-eabi/10.3.1/thumb/v7e-m+fp/hard/libgcc.a(_arm_fixdfsi.o)
 .debug_str     0x000000000001c561       0x31 /usr/lib/gcc/arm-none-eabi/10.3.1/thumb/v7e-m+fp/hard/libgcc.a(_arm_addsubsf3.o)
                                         0xab (size before relaxing)
 .debug_str     0x000000000001c592       0x2c /usr/lib/gcc/arm-none-eabi/10.3.1/thumb/v7e-m+fp/hard/libgcc.a(_aeabi_uldivmod.o)
                                         0xa6 (size before relaxing)
 .debug_str     0x000000000001c5be      0x53f /usr/lib/gcc/arm-none-eabi/10.3.1/thumb/v7e-m+fp/hard/libgcc.a(_udivmoddi4.o)
                                        0x647 (size before relaxing)
 .debug_str     0x000000000001cafd       0x30 /usr/lib/gcc/arm-none-eabi/10.3.1/thumb/v7e-m+fp/hard/libgcc.a(_dvmd_tls.o)
                                         0xaa (size before relaxing)
 .debug_str     0x000000000001cb2d       0xf2 /usr/lib/gcc/arm-none-eabi/10.3.1/../../../arm-none-eabi/lib/thumb/v7e-m+fp/hard/libnosys.a(close.o)
                                        0x194 (size before relaxing)
 .debug_str     0x000000000001cc1f       0x2f /usr/lib/gcc/arm-none-eabi/10.3.1/../../../arm-none-eabi/lib/thumb/v7e-m+fp/hard/libnosys.a(fstat.o)
                                        0x2e0 (size before relaxing)
 .debug_str     0x000000000001cc4e       0x30 /usr/lib/gcc/arm-none-eabi/10.3.1/../../../arm-none-eabi/lib/thumb/v7e-m+fp/hard/libnosys.a(getpid.o)
                                        0x18f (size before relaxing)
 .debug_str     0x000000000001cc7e       0x30 /usr/lib/gcc/arm-none-eabi/10.3.1/../../../arm-none-eabi/lib/thumb/v7e-m+fp/hard/libnosys.a(isatty.o)
                                        0x194 (size before relaxing)
 .debug_str     0x000000000001ccae       0x2e /usr/lib/gcc/arm-none-eabi/10.3.1/../../../arm-none-eabi/lib/thumb/v7e-m+fp/hard/libnosys.a(kill.o)
                                        0x18b (size before relaxing)
 .debug_str     0x000000000001ccdc       0x2f /usr/lib/gcc/arm-none-eabi/10.3.1/../../../arm-none-eabi/lib/thumb/v7e-m+fp/hard/libnosys.a(lseek.o)
                                        0x192 (size before relaxing)
 .debug_str     0x000000000001cd0b       0x2e /usr/lib/gcc/arm-none-eabi/10.3.1/../../../arm-none-eabi/lib/thumb/v7e-m+fp/hard/libnosys.a(read.o)
                                        0x190 (size before relaxing)
 .debug_str     0x000000000001cd39       0x3c /usr/lib/gcc/arm-none-eabi/10.3.1/../../../arm-none-eabi/lib/thumb/v7e-m+fp/hard/libnosys.a(sbrk.o)
                                        0x111 (size before relaxing)
 .debug_str     0x000000000001cd75       0x2f /usr/lib/gcc/arm-none-eabi/10.3.1/../../../arm-none-eabi/lib/thumb/v7e-m+fp/hard/libnosys.a(write.o)
                                        0x192 (size before relaxing)
 .debug_str     0x000000000001cda4       0x2f /usr/lib/gcc/arm-none-eabi/10.3.1/../../../arm-none-eabi/lib/thumb/v7e-m+fp/hard/libnosys.a(_exit.o)
                                        0x181 (size before relaxing)

.comment        0x0000000000000000       0x33
 .comment       0x0000000000000000       0x33 ./.obj/main.o
                                         0x34 (size before relaxing)
 .comment       0x0000000000000033       0x34 ./.obj/Time.o
 .comment       0x0000000000000033       0x34 ./.obj/cli_queue.o
 .comment       0x0000000000000033       0x34 ./.obj/cli_string.o
 .comment       0x0000000000000033       0x34 ./.obj/cli_input.o
 .comment       0x0000000000000033       0x34 ./.obj/cli_log.o
 .comment       0x0000000000000033       0x34 ./.obj/cli_time.o
 .comment       0x0000000000000033       0x34 ./.obj/terminal.o
 .comment       0x0000000000000033       0x34 ./.obj/my_test_commands.o
 .comment       0x0000000000000033       0x34 ./libopencm3/lib/libopencm3_stm32f4.a(gpio_common_f0234.o)
 .comment       0x0000000000000033       0x34 ./libopencm3/lib/libopencm3_stm32f4.a(rcc_common_all.o)
 .comment       0x0000000000000033       0x34 ./libopencm3/lib/libopencm3_stm32f4.a(rcc.o)
 .comment       0x0000000000000033       0x34 ./libopencm3/lib/libopencm3_stm32f4.a(timer_common_all.o)
 .comment       0x0000000000000033       0x34 ./libopencm3/lib/libopencm3_stm32f4.a(usart_common_all.o)
 .comment       0x0000000000000033       0x34 ./libopencm3/lib/libopencm3_stm32f4.a(usart_common_f124.o)
 .comment       0x0000000000000033       0x34 ./libopencm3/lib/libopencm3_stm32f4.a(vector.o)
 .comment       0x0000000000000033       0x34 ./libopencm3/lib/libopencm3_stm32f4.a(scb.o)
 .comment       0x0000000000000033       0x34 ./libopencm3/lib/libopencm3_stm32f4.a(nvic.o)
 .comment       0x0000000000000033       0x34 /usr/lib/gcc/arm-none-eabi/10.3.1/../../../arm-none-eabi/lib/thumb/v7e-m+fp/hard/libc.a(lib_a-malloc.o)
 .comment       0x0000000000000033       0x34 /usr/lib/gcc/arm-none-eabi/10.3.1/../../../arm-none-eabi/lib/thumb/v7e-m+fp/hard/libc.a(lib_a-mallocr.o)
 .comment       0x0000000000000033       0x34 /usr/lib/gcc/arm-none-eabi/10.3.1/../../../arm-none-eabi/lib/thumb/v7e-m+fp/hard/libc.a(lib_a-memcmp.o)
 .comment       0x0000000000000033       0x34 /usr/lib/gcc/arm-none-eabi/10.3.1/../../../arm-none-eabi/lib/thumb/v7e-m+fp/hard/libc.a(lib_a-mlock.o)
 .comment       0x0000000000000033       0x34 /usr/lib/gcc/arm-none-eabi/10.3.1/../../../arm-none-eabi/lib/thumb/v7e-m+fp/hard/libc.a(lib_a-sbrkr.o)
 .comment       0x0000000000000033       0x34 /usr/lib/gcc/arm-none-eabi/10.3.1/../../../arm-none-eabi/lib/thumb/v7e-m+fp/hard/libc.a(lib_a-sprintf.o)
 .comment       0x0000000000000033       0x34 /usr/lib/gcc/arm-none-eabi/10.3.1/../../../arm-none-eabi/lib/thumb/v7e-m+fp/hard/libc.a(lib_a-strcpy.o)
 .comment       0x0000000000000033       0x34 /usr/lib/gcc/arm-none-eabi/10.3.1/../../../arm-none-eabi/lib/thumb/v7e-m+fp/hard/libc.a(lib_a-strtol.o)
 .comment       0x0000000000000033       0x34 /usr/lib/gcc/arm-none-eabi/10.3.1/../../../arm-none-eabi/lib/thumb/v7e-m+fp/hard/libc.a(lib_a-svfprintf.o)
 .comment       0x0000000000000033       0x34 /usr/lib/gcc/arm-none-eabi/10.3.1/../../../arm-none-eabi/lib/thumb/v7e-m+fp/hard/libc.a(lib_a-ctype_.o)
 .comment       0x0000000000000033       0x34 /usr/lib/gcc/arm-none-eabi/10.3.1/../../../arm-none-eabi/lib/thumb/v7e-m+fp/hard/libc.a(lib_a-dtoa.o)
 .comment       0x0000000000000033       0x34 /usr/lib/gcc/arm-none-eabi/10.3.1/../../../arm-none-eabi/lib/thumb/v7e-m+fp/hard/libc.a(lib_a-errno.o)
 .comment       0x0000000000000033       0x34 /usr/lib/gcc/arm-none-eabi/10.3.1/../../../arm-none-eabi/lib/thumb/v7e-m+fp/hard/libc.a(lib_a-freer.o)
 .comment       0x0000000000000033       0x34 /usr/lib/gcc/arm-none-eabi/10.3.1/../../../arm-none-eabi/lib/thumb/v7e-m+fp/hard/libc.a(lib_a-impure.o)
 .comment       0x0000000000000033       0x34 /usr/lib/gcc/arm-none-eabi/10.3.1/../../../arm-none-eabi/lib/thumb/v7e-m+fp/hard/libc.a(lib_a-localeconv.o)
 .comment       0x0000000000000033       0x34 /usr/lib/gcc/arm-none-eabi/10.3.1/../../../arm-none-eabi/lib/thumb/v7e-m+fp/hard/libc.a(lib_a-mprec.o)
 .comment       0x0000000000000033       0x34 /usr/lib/gcc/arm-none-eabi/10.3.1/../../../arm-none-eabi/lib/thumb/v7e-m+fp/hard/libc.a(lib_a-reent.o)
 .comment       0x0000000000000033       0x34 /usr/lib/gcc/arm-none-eabi/10.3.1/../../../arm-none-eabi/lib/thumb/v7e-m+fp/hard/libc.a(lib_a-svfiprintf.o)
 .comment       0x0000000000000033       0x34 /usr/lib/gcc/arm-none-eabi/10.3.1/../../../arm-none-eabi/lib/thumb/v7e-m+fp/hard/libc.a(lib_a-assert.o)
 .comment       0x0000000000000033       0x34 /usr/lib/gcc/arm-none-eabi/10.3.1/../../../arm-none-eabi/lib/thumb/v7e-m+fp/hard/libc.a(lib_a-callocr.o)
 .comment       0x0000000000000033       0x34 /usr/lib/gcc/arm-none-eabi/10.3.1/../../../arm-none-eabi/lib/thumb/v7e-m+fp/hard/libc.a(lib_a-fiprintf.o)
 .comment       0x0000000000000033       0x34 /usr/lib/gcc/arm-none-eabi/10.3.1/../../../arm-none-eabi/lib/thumb/v7e-m+fp/hard/libc.a(lib_a-locale.o)
 .comment       0x0000000000000033       0x34 /usr/lib/gcc/arm-none-eabi/10.3.1/../../../arm-none-eabi/lib/thumb/v7e-m+fp/hard/libc.a(lib_a-mbtowc_r.o)
 .comment       0x0000000000000033       0x34 /usr/lib/gcc/arm-none-eabi/10.3.1/../../../arm-none-eabi/lib/thumb/v7e-m+fp/hard/libc.a(lib_a-memmove.o)
 .comment       0x0000000000000033       0x34 /usr/lib/gcc/arm-none-eabi/10.3.1/../../../arm-none-eabi/lib/thumb/v7e-m+fp/hard/libc.a(lib_a-memset.o)
 .comment       0x0000000000000033       0x34 /usr/lib/gcc/arm-none-eabi/10.3.1/../../../arm-none-eabi/lib/thumb/v7e-m+fp/hard/libc.a(lib_a-reallocr.o)
 .comment       0x0000000000000033       0x34 /usr/lib/gcc/arm-none-eabi/10.3.1/../../../arm-none-eabi/lib/thumb/v7e-m+fp/hard/libc.a(lib_a-vfiprintf.o)
 .comment       0x0000000000000033       0x34 /usr/lib/gcc/arm-none-eabi/10.3.1/../../../arm-none-eabi/lib/thumb/v7e-m+fp/hard/libc.a(lib_a-wctomb_r.o)
 .comment       0x0000000000000033       0x34 /usr/lib/gcc/arm-none-eabi/10.3.1/../../../arm-none-eabi/lib/thumb/v7e-m+fp/hard/libc.a(lib_a-wsetup.o)
 .comment       0x0000000000000033       0x34 /usr/lib/gcc/arm-none-eabi/10.3.1/../../../arm-none-eabi/lib/thumb/v7e-m+fp/hard/libc.a(lib_a-abort.o)
 .comment       0x0000000000000033       0x34 /usr/lib/gcc/arm-none-eabi/10.3.1/../../../arm-none-eabi/lib/thumb/v7e-m+fp/hard/libc.a(lib_a-fflush.o)
 .comment       0x0000000000000033       0x34 /usr/lib/gcc/arm-none-eabi/10.3.1/../../../arm-none-eabi/lib/thumb/v7e-m+fp/hard/libc.a(lib_a-findfp.o)
 .comment       0x0000000000000033       0x34 /usr/lib/gcc/arm-none-eabi/10.3.1/../../../arm-none-eabi/lib/thumb/v7e-m+fp/hard/libc.a(lib_a-fputwc.o)
 .comment       0x0000000000000033       0x34 /usr/lib/gcc/arm-none-eabi/10.3.1/../../../arm-none-eabi/lib/thumb/v7e-m+fp/hard/libc.a(lib_a-fvwrite.o)
 .comment       0x0000000000000033       0x34 /usr/lib/gcc/arm-none-eabi/10.3.1/../../../arm-none-eabi/lib/thumb/v7e-m+fp/hard/libc.a(lib_a-fwalk.o)
 .comment       0x0000000000000033       0x34 /usr/lib/gcc/arm-none-eabi/10.3.1/../../../arm-none-eabi/lib/thumb/v7e-m+fp/hard/libc.a(lib_a-makebuf.o)
 .comment       0x0000000000000033       0x34 /usr/lib/gcc/arm-none-eabi/10.3.1/../../../arm-none-eabi/lib/thumb/v7e-m+fp/hard/libc.a(lib_a-signal.o)
 .comment       0x0000000000000033       0x34 /usr/lib/gcc/arm-none-eabi/10.3.1/../../../arm-none-eabi/lib/thumb/v7e-m+fp/hard/libc.a(lib_a-signalr.o)
 .comment       0x0000000000000033       0x34 /usr/lib/gcc/arm-none-eabi/10.3.1/../../../arm-none-eabi/lib/thumb/v7e-m+fp/hard/libc.a(lib_a-stdio.o)
 .comment       0x0000000000000033       0x34 /usr/lib/gcc/arm-none-eabi/10.3.1/../../../arm-none-eabi/lib/thumb/v7e-m+fp/hard/libc.a(lib_a-wbuf.o)
 .comment       0x0000000000000033       0x34 /usr/lib/gcc/arm-none-eabi/10.3.1/../../../arm-none-eabi/lib/thumb/v7e-m+fp/hard/libc.a(lib_a-wcrtomb.o)
 .comment       0x0000000000000033       0x34 /usr/lib/gcc/arm-none-eabi/10.3.1/../../../arm-none-eabi/lib/thumb/v7e-m+fp/hard/libc.a(lib_a-writer.o)
 .comment       0x0000000000000033       0x34 /usr/lib/gcc/arm-none-eabi/10.3.1/../../../arm-none-eabi/lib/thumb/v7e-m+fp/hard/libc.a(lib_a-closer.o)
 .comment       0x0000000000000033       0x34 /usr/lib/gcc/arm-none-eabi/10.3.1/../../../arm-none-eabi/lib/thumb/v7e-m+fp/hard/libc.a(lib_a-fclose.o)
 .comment       0x0000000000000033       0x34 /usr/lib/gcc/arm-none-eabi/10.3.1/../../../arm-none-eabi/lib/thumb/v7e-m+fp/hard/libc.a(lib_a-fstatr.o)
 .comment       0x0000000000000033       0x34 /usr/lib/gcc/arm-none-eabi/10.3.1/../../../arm-none-eabi/lib/thumb/v7e-m+fp/hard/libc.a(lib_a-isattyr.o)
 .comment       0x0000000000000033       0x34 /usr/lib/gcc/arm-none-eabi/10.3.1/../../../arm-none-eabi/lib/thumb/v7e-m+fp/hard/libc.a(lib_a-lseekr.o)
 .comment       0x0000000000000033       0x34 /usr/lib/gcc/arm-none-eabi/10.3.1/../../../arm-none-eabi/lib/thumb/v7e-m+fp/hard/libc.a(lib_a-readr.o)
 .comment       0x0000000000000033       0x34 /usr/lib/gcc/arm-none-eabi/10.3.1/thumb/v7e-m+fp/hard/libgcc.a(_udivmoddi4.o)
 .comment       0x0000000000000033       0x34 /usr/lib/gcc/arm-none-eabi/10.3.1/../../../arm-none-eabi/lib/thumb/v7e-m+fp/hard/libnosys.a(close.o)
 .comment       0x0000000000000033       0x34 /usr/lib/gcc/arm-none-eabi/10.3.1/../../../arm-none-eabi/lib/thumb/v7e-m+fp/hard/libnosys.a(fstat.o)
 .comment       0x0000000000000033       0x34 /usr/lib/gcc/arm-none-eabi/10.3.1/../../../arm-none-eabi/lib/thumb/v7e-m+fp/hard/libnosys.a(getpid.o)
 .comment       0x0000000000000033       0x34 /usr/lib/gcc/arm-none-eabi/10.3.1/../../../arm-none-eabi/lib/thumb/v7e-m+fp/hard/libnosys.a(isatty.o)
 .comment       0x0000000000000033       0x34 /usr/lib/gcc/arm-none-eabi/10.3.1/../../../arm-none-eabi/lib/thumb/v7e-m+fp/hard/libnosys.a(kill.o)
 .comment       0x0000000000000033       0x34 /usr/lib/gcc/arm-none-eabi/10.3.1/../../../arm-none-eabi/lib/thumb/v7e-m+fp/hard/libnosys.a(lseek.o)
 .comment       0x0000000000000033       0x34 /usr/lib/gcc/arm-none-eabi/10.3.1/../../../arm-none-eabi/lib/thumb/v7e-m+fp/hard/libnosys.a(read.o)
 .comment       0x0000000000000033       0x34 /usr/lib/gcc/arm-none-eabi/10.3.1/../../../arm-none-eabi/lib/thumb/v7e-m+fp/hard/libnosys.a(sbrk.o)
 .comment       0x0000000000000033       0x34 /usr/lib/gcc/arm-none-eabi/10.3.1/../../../arm-none-eabi/lib/thumb/v7e-m+fp/hard/libnosys.a(write.o)
 .comment       0x0000000000000033       0x34 /usr/lib/gcc/arm-none-eabi/10.3.1/../../../arm-none-eabi/lib/thumb/v7e-m+fp/hard/libnosys.a(_exit.o)

.ARM.attributes
                0x0000000000000000       0x32
 .ARM.attributes
                0x0000000000000000       0x34 ./.obj/main.o
 .ARM.attributes
                0x0000000000000034       0x34 ./.obj/Time.o
 .ARM.attributes
                0x0000000000000068       0x34 ./.obj/cli_queue.o
 .ARM.attributes
                0x000000000000009c       0x34 ./.obj/cli_string.o
 .ARM.attributes
                0x00000000000000d0       0x34 ./.obj/cli_input.o
 .ARM.attributes
                0x0000000000000104       0x34 ./.obj/cli_log.o
 .ARM.attributes
                0x0000000000000138       0x34 ./.obj/cli_time.o
 .ARM.attributes
                0x000000000000016c       0x34 ./.obj/terminal.o
 .ARM.attributes
                0x00000000000001a0       0x34 ./.obj/my_test_commands.o
 .ARM.attributes
                0x00000000000001d4       0x34 ./libopencm3/lib/libopencm3_stm32f4.a(gpio_common_f0234.o)
 .ARM.attributes
                0x0000000000000208       0x34 ./libopencm3/lib/libopencm3_stm32f4.a(rcc_common_all.o)
 .ARM.attributes
                0x000000000000023c       0x34 ./libopencm3/lib/libopencm3_stm32f4.a(rcc.o)
 .ARM.attributes
                0x0000000000000270       0x34 ./libopencm3/lib/libopencm3_stm32f4.a(timer_common_all.o)
 .ARM.attributes
                0x00000000000002a4       0x34 ./libopencm3/lib/libopencm3_stm32f4.a(usart_common_all.o)
 .ARM.attributes
                0x00000000000002d8       0x34 ./libopencm3/lib/libopencm3_stm32f4.a(usart_common_f124.o)
 .ARM.attributes
                0x000000000000030c       0x34 ./libopencm3/lib/libopencm3_stm32f4.a(vector.o)
 .ARM.attributes
                0x0000000000000340       0x34 ./libopencm3/lib/libopencm3_stm32f4.a(scb.o)
 .ARM.attributes
                0x0000000000000374       0x34 ./libopencm3/lib/libopencm3_stm32f4.a(nvic.o)
 .ARM.attributes
                0x00000000000003a8       0x34 /usr/lib/gcc/arm-none-eabi/10.3.1/../../../arm-none-eabi/lib/thumb/v7e-m+fp/hard/libc.a(lib_a-malloc.o)
 .ARM.attributes
                0x00000000000003dc       0x34 /usr/lib/gcc/arm-none-eabi/10.3.1/../../../arm-none-eabi/lib/thumb/v7e-m+fp/hard/libc.a(lib_a-mallocr.o)
 .ARM.attributes
                0x0000000000000410       0x34 /usr/lib/gcc/arm-none-eabi/10.3.1/../../../arm-none-eabi/lib/thumb/v7e-m+fp/hard/libc.a(lib_a-memcmp.o)
 .ARM.attributes
                0x0000000000000444       0x1c /usr/lib/gcc/arm-none-eabi/10.3.1/../../../arm-none-eabi/lib/thumb/v7e-m+fp/hard/libc.a(lib_a-memcpy.o)
 .ARM.attributes
                0x0000000000000460       0x34 /usr/lib/gcc/arm-none-eabi/10.3.1/../../../arm-none-eabi/lib/thumb/v7e-m+fp/hard/libc.a(lib_a-mlock.o)
 .ARM.attributes
                0x0000000000000494       0x34 /usr/lib/gcc/arm-none-eabi/10.3.1/../../../arm-none-eabi/lib/thumb/v7e-m+fp/hard/libc.a(lib_a-sbrkr.o)
 .ARM.attributes
                0x00000000000004c8       0x34 /usr/lib/gcc/arm-none-eabi/10.3.1/../../../arm-none-eabi/lib/thumb/v7e-m+fp/hard/libc.a(lib_a-sprintf.o)
 .ARM.attributes
                0x00000000000004fc       0x34 /usr/lib/gcc/arm-none-eabi/10.3.1/../../../arm-none-eabi/lib/thumb/v7e-m+fp/hard/libc.a(lib_a-strcpy.o)
 .ARM.attributes
                0x0000000000000530       0x34 /usr/lib/gcc/arm-none-eabi/10.3.1/../../../arm-none-eabi/lib/thumb/v7e-m+fp/hard/libc.a(lib_a-strtol.o)
 .ARM.attributes
                0x0000000000000564       0x34 /usr/lib/gcc/arm-none-eabi/10.3.1/../../../arm-none-eabi/lib/thumb/v7e-m+fp/hard/libc.a(lib_a-svfprintf.o)
 .ARM.attributes
                0x0000000000000598       0x32 /usr/lib/gcc/arm-none-eabi/10.3.1/../../../arm-none-eabi/lib/thumb/v7e-m+fp/hard/libc.a(lib_a-ctype_.o)
 .ARM.attributes
                0x00000000000005ca       0x34 /usr/lib/gcc/arm-none-eabi/10.3.1/../../../arm-none-eabi/lib/thumb/v7e-m+fp/hard/libc.a(lib_a-dtoa.o)
 .ARM.attributes
                0x00000000000005fe       0x34 /usr/lib/gcc/arm-none-eabi/10.3.1/../../../arm-none-eabi/lib/thumb/v7e-m+fp/hard/libc.a(lib_a-errno.o)
 .ARM.attributes
                0x0000000000000632       0x34 /usr/lib/gcc/arm-none-eabi/10.3.1/../../../arm-none-eabi/lib/thumb/v7e-m+fp/hard/libc.a(lib_a-freer.o)
 .ARM.attributes
                0x0000000000000666       0x32 /usr/lib/gcc/arm-none-eabi/10.3.1/../../../arm-none-eabi/lib/thumb/v7e-m+fp/hard/libc.a(lib_a-impure.o)
 .ARM.attributes
                0x0000000000000698       0x34 /usr/lib/gcc/arm-none-eabi/10.3.1/../../../arm-none-eabi/lib/thumb/v7e-m+fp/hard/libc.a(lib_a-localeconv.o)
 .ARM.attributes
                0x00000000000006cc       0x1c /usr/lib/gcc/arm-none-eabi/10.3.1/../../../arm-none-eabi/lib/thumb/v7e-m+fp/hard/libc.a(lib_a-memchr.o)
 .ARM.attributes
                0x00000000000006e8       0x34 /usr/lib/gcc/arm-none-eabi/10.3.1/../../../arm-none-eabi/lib/thumb/v7e-m+fp/hard/libc.a(lib_a-mprec.o)
 .ARM.attributes
                0x000000000000071c       0x34 /usr/lib/gcc/arm-none-eabi/10.3.1/../../../arm-none-eabi/lib/thumb/v7e-m+fp/hard/libc.a(lib_a-reent.o)
 .ARM.attributes
                0x0000000000000750       0x1c /usr/lib/gcc/arm-none-eabi/10.3.1/../../../arm-none-eabi/lib/thumb/v7e-m+fp/hard/libc.a(lib_a-strlen.o)
 .ARM.attributes
                0x000000000000076c       0x34 /usr/lib/gcc/arm-none-eabi/10.3.1/../../../arm-none-eabi/lib/thumb/v7e-m+fp/hard/libc.a(lib_a-svfiprintf.o)
 .ARM.attributes
                0x00000000000007a0       0x34 /usr/lib/gcc/arm-none-eabi/10.3.1/../../../arm-none-eabi/lib/thumb/v7e-m+fp/hard/libc.a(lib_a-assert.o)
 .ARM.attributes
                0x00000000000007d4       0x34 /usr/lib/gcc/arm-none-eabi/10.3.1/../../../arm-none-eabi/lib/thumb/v7e-m+fp/hard/libc.a(lib_a-callocr.o)
 .ARM.attributes
                0x0000000000000808       0x34 /usr/lib/gcc/arm-none-eabi/10.3.1/../../../arm-none-eabi/lib/thumb/v7e-m+fp/hard/libc.a(lib_a-fiprintf.o)
 .ARM.attributes
                0x000000000000083c       0x34 /usr/lib/gcc/arm-none-eabi/10.3.1/../../../arm-none-eabi/lib/thumb/v7e-m+fp/hard/libc.a(lib_a-locale.o)
 .ARM.attributes
                0x0000000000000870       0x34 /usr/lib/gcc/arm-none-eabi/10.3.1/../../../arm-none-eabi/lib/thumb/v7e-m+fp/hard/libc.a(lib_a-mbtowc_r.o)
 .ARM.attributes
                0x00000000000008a4       0x34 /usr/lib/gcc/arm-none-eabi/10.3.1/../../../arm-none-eabi/lib/thumb/v7e-m+fp/hard/libc.a(lib_a-memmove.o)
 .ARM.attributes
                0x00000000000008d8       0x34 /usr/lib/gcc/arm-none-eabi/10.3.1/../../../arm-none-eabi/lib/thumb/v7e-m+fp/hard/libc.a(lib_a-memset.o)
 .ARM.attributes
                0x000000000000090c       0x34 /usr/lib/gcc/arm-none-eabi/10.3.1/../../../arm-none-eabi/lib/thumb/v7e-m+fp/hard/libc.a(lib_a-reallocr.o)
 .ARM.attributes
                0x0000000000000940       0x1c /usr/lib/gcc/arm-none-eabi/10.3.1/../../../arm-none-eabi/lib/thumb/v7e-m+fp/hard/libc.a(lib_a-strcmp.o)
 .ARM.attributes
                0x000000000000095c       0x34 /usr/lib/gcc/arm-none-eabi/10.3.1/../../../arm-none-eabi/lib/thumb/v7e-m+fp/hard/libc.a(lib_a-vfiprintf.o)
 .ARM.attributes
                0x0000000000000990       0x34 /usr/lib/gcc/arm-none-eabi/10.3.1/../../../arm-none-eabi/lib/thumb/v7e-m+fp/hard/libc.a(lib_a-wctomb_r.o)
 .ARM.attributes
                0x00000000000009c4       0x34 /usr/lib/gcc/arm-none-eabi/10.3.1/../../../arm-none-eabi/lib/thumb/v7e-m+fp/hard/libc.a(lib_a-wsetup.o)
 .ARM.attributes
                0x00000000000009f8       0x34 /usr/lib/gcc/arm-none-eabi/10.3.1/../../../arm-none-eabi/lib/thumb/v7e-m+fp/hard/libc.a(lib_a-abort.o)
 .ARM.attributes
                0x0000000000000a2c       0x34 /usr/lib/gcc/arm-none-eabi/10.3.1/../../../arm-none-eabi/lib/thumb/v7e-m+fp/hard/libc.a(lib_a-fflush.o)
 .ARM.attributes
                0x0000000000000a60       0x34 /usr/lib/gcc/arm-none-eabi/10.3.1/../../../arm-none-eabi/lib/thumb/v7e-m+fp/hard/libc.a(lib_a-findfp.o)
 .ARM.attributes
                0x0000000000000a94       0x34 /usr/lib/gcc/arm-none-eabi/10.3.1/../../../arm-none-eabi/lib/thumb/v7e-m+fp/hard/libc.a(lib_a-fputwc.o)
 .ARM.attributes
                0x0000000000000ac8       0x34 /usr/lib/gcc/arm-none-eabi/10.3.1/../../../arm-none-eabi/lib/thumb/v7e-m+fp/hard/libc.a(lib_a-fvwrite.o)
 .ARM.attributes
                0x0000000000000afc       0x34 /usr/lib/gcc/arm-none-eabi/10.3.1/../../../arm-none-eabi/lib/thumb/v7e-m+fp/hard/libc.a(lib_a-fwalk.o)
 .ARM.attributes
                0x0000000000000b30       0x34 /usr/lib/gcc/arm-none-eabi/10.3.1/../../../arm-none-eabi/lib/thumb/v7e-m+fp/hard/libc.a(lib_a-makebuf.o)
 .ARM.attributes
                0x0000000000000b64       0x34 /usr/lib/gcc/arm-none-eabi/10.3.1/../../../arm-none-eabi/lib/thumb/v7e-m+fp/hard/libc.a(lib_a-signal.o)
 .ARM.attributes
                0x0000000000000b98       0x34 /usr/lib/gcc/arm-none-eabi/10.3.1/../../../arm-none-eabi/lib/thumb/v7e-m+fp/hard/libc.a(lib_a-signalr.o)
 .ARM.attributes
                0x0000000000000bcc       0x34 /usr/lib/gcc/arm-none-eabi/10.3.1/../../../arm-none-eabi/lib/thumb/v7e-m+fp/hard/libc.a(lib_a-stdio.o)
 .ARM.attributes
                0x0000000000000c00       0x34 /usr/lib/gcc/arm-none-eabi/10.3.1/../../../arm-none-eabi/lib/thumb/v7e-m+fp/hard/libc.a(lib_a-wbuf.o)
 .ARM.attributes
                0x0000000000000c34       0x34 /usr/lib/gcc/arm-none-eabi/10.3.1/../../../arm-none-eabi/lib/thumb/v7e-m+fp/hard/libc.a(lib_a-wcrtomb.o)
 .ARM.attributes
                0x0000000000000c68       0x34 /usr/lib/gcc/arm-none-eabi/10.3.1/../../../arm-none-eabi/lib/thumb/v7e-m+fp/hard/libc.a(lib_a-writer.o)
 .ARM.attributes
                0x0000000000000c9c       0x34 /usr/lib/gcc/arm-none-eabi/10.3.1/../../../arm-none-eabi/lib/thumb/v7e-m+fp/hard/libc.a(lib_a-closer.o)
 .ARM.attributes
                0x0000000000000cd0       0x34 /usr/lib/gcc/arm-none-eabi/10.3.1/../../../arm-none-eabi/lib/thumb/v7e-m+fp/hard/libc.a(lib_a-fclose.o)
 .ARM.attributes
                0x0000000000000d04       0x34 /usr/lib/gcc/arm-none-eabi/10.3.1/../../../arm-none-eabi/lib/thumb/v7e-m+fp/hard/libc.a(lib_a-fstatr.o)
 .ARM.attributes
                0x0000000000000d38       0x34 /usr/lib/gcc/arm-none-eabi/10.3.1/../../../arm-none-eabi/lib/thumb/v7e-m+fp/hard/libc.a(lib_a-isattyr.o)
 .ARM.attributes
                0x0000000000000d6c       0x34 /usr/lib/gcc/arm-none-eabi/10.3.1/../../../arm-none-eabi/lib/thumb/v7e-m+fp/hard/libc.a(lib_a-lseekr.o)
 .ARM.attributes
                0x0000000000000da0       0x34 /usr/lib/gcc/arm-none-eabi/10.3.1/../../../arm-none-eabi/lib/thumb/v7e-m+fp/hard/libc.a(lib_a-readr.o)
 .ARM.attributes
                0x0000000000000dd4       0x1e /usr/lib/gcc/arm-none-eabi/10.3.1/thumb/v7e-m+fp/hard/libgcc.a(_arm_addsubdf3.o)
 .ARM.attributes
                0x0000000000000df2       0x1e /usr/lib/gcc/arm-none-eabi/10.3.1/thumb/v7e-m+fp/hard/libgcc.a(_arm_muldivdf3.o)
 .ARM.attributes
                0x0000000000000e10       0x1e /usr/lib/gcc/arm-none-eabi/10.3.1/thumb/v7e-m+fp/hard/libgcc.a(_arm_cmpdf2.o)
 .ARM.attributes
                0x0000000000000e2e       0x1e /usr/lib/gcc/arm-none-eabi/10.3.1/thumb/v7e-m+fp/hard/libgcc.a(_arm_unorddf2.o)
 .ARM.attributes
                0x0000000000000e4c       0x1e /usr/lib/gcc/arm-none-eabi/10.3.1/thumb/v7e-m+fp/hard/libgcc.a(_arm_fixdfsi.o)
 .ARM.attributes
                0x0000000000000e6a       0x1e /usr/lib/gcc/arm-none-eabi/10.3.1/thumb/v7e-m+fp/hard/libgcc.a(_arm_addsubsf3.o)
 .ARM.attributes
                0x0000000000000e88       0x1e /usr/lib/gcc/arm-none-eabi/10.3.1/thumb/v7e-m+fp/hard/libgcc.a(_aeabi_uldivmod.o)
 .ARM.attributes
                0x0000000000000ea6       0x34 /usr/lib/gcc/arm-none-eabi/10.3.1/thumb/v7e-m+fp/hard/libgcc.a(_udivmoddi4.o)
 .ARM.attributes
                0x0000000000000eda       0x1e /usr/lib/gcc/arm-none-eabi/10.3.1/thumb/v7e-m+fp/hard/libgcc.a(_dvmd_tls.o)
 .ARM.attributes
                0x0000000000000ef8       0x34 /usr/lib/gcc/arm-none-eabi/10.3.1/../../../arm-none-eabi/lib/thumb/v7e-m+fp/hard/libnosys.a(close.o)
 .ARM.attributes
                0x0000000000000f2c       0x34 /usr/lib/gcc/arm-none-eabi/10.3.1/../../../arm-none-eabi/lib/thumb/v7e-m+fp/hard/libnosys.a(fstat.o)
 .ARM.attributes
                0x0000000000000f60       0x34 /usr/lib/gcc/arm-none-eabi/10.3.1/../../../arm-none-eabi/lib/thumb/v7e-m+fp/hard/libnosys.a(getpid.o)
 .ARM.attributes
                0x0000000000000f94       0x34 /usr/lib/gcc/arm-none-eabi/10.3.1/../../../arm-none-eabi/lib/thumb/v7e-m+fp/hard/libnosys.a(isatty.o)
 .ARM.attributes
                0x0000000000000fc8       0x34 /usr/lib/gcc/arm-none-eabi/10.3.1/../../../arm-none-eabi/lib/thumb/v7e-m+fp/hard/libnosys.a(kill.o)
 .ARM.attributes
                0x0000000000000ffc       0x34 /usr/lib/gcc/arm-none-eabi/10.3.1/../../../arm-none-eabi/lib/thumb/v7e-m+fp/hard/libnosys.a(lseek.o)
 .ARM.attributes
                0x0000000000001030       0x34 /usr/lib/gcc/arm-none-eabi/10.3.1/../../../arm-none-eabi/lib/thumb/v7e-m+fp/hard/libnosys.a(read.o)
 .ARM.attributes
                0x0000000000001064       0x34 /usr/lib/gcc/arm-none-eabi/10.3.1/../../../arm-none-eabi/lib/thumb/v7e-m+fp/hard/libnosys.a(sbrk.o)
 .ARM.attributes
                0x0000000000001098       0x34 /usr/lib/gcc/arm-none-eabi/10.3.1/../../../arm-none-eabi/lib/thumb/v7e-m+fp/hard/libnosys.a(write.o)
 .ARM.attributes
                0x00000000000010cc       0x34 /usr/lib/gcc/arm-none-eabi/10.3.1/../../../arm-none-eabi/lib/thumb/v7e-m+fp/hard/libnosys.a(_exit.o)

.debug_frame    0x0000000000000000     0x2c84
 .debug_frame   0x0000000000000000      0x108 ./.obj/main.o
 .debug_frame   0x0000000000000108       0x68 ./.obj/Time.o
 .debug_frame   0x0000000000000170       0xb0 ./.obj/cli_queue.o
 .debug_frame   0x0000000000000220       0xe8 ./.obj/cli_string.o
 .debug_frame   0x0000000000000308      0x1f4 ./.obj/cli_input.o
 .debug_frame   0x00000000000004fc       0x84 ./.obj/cli_log.o
 .debug_frame   0x0000000000000580       0xb0 ./.obj/cli_time.o
 .debug_frame   0x0000000000000630      0x310 ./.obj/terminal.o
 .debug_frame   0x0000000000000940       0x60 ./.obj/my_test_commands.o
 .debug_frame   0x00000000000009a0       0x70 ./libopencm3/lib/libopencm3_stm32f4.a(gpio_common_f0234.o)
 .debug_frame   0x0000000000000a10       0xe0 ./libopencm3/lib/libopencm3_stm32f4.a(rcc_common_all.o)
 .debug_frame   0x0000000000000af0      0x234 ./libopencm3/lib/libopencm3_stm32f4.a(rcc.o)
 .debug_frame   0x0000000000000d24      0x4d8 ./libopencm3/lib/libopencm3_stm32f4.a(timer_common_all.o)
 .debug_frame   0x00000000000011fc      0x1e8 ./libopencm3/lib/libopencm3_stm32f4.a(usart_common_all.o)
 .debug_frame   0x00000000000013e4       0x60 ./libopencm3/lib/libopencm3_stm32f4.a(usart_common_f124.o)
 .debug_frame   0x0000000000001444       0x4c ./libopencm3/lib/libopencm3_stm32f4.a(vector.o)
 .debug_frame   0x0000000000001490       0x40 ./libopencm3/lib/libopencm3_stm32f4.a(scb.o)
 .debug_frame   0x00000000000014d0       0xa0 ./libopencm3/lib/libopencm3_stm32f4.a(nvic.o)
 .debug_frame   0x0000000000001570       0x30 /usr/lib/gcc/arm-none-eabi/10.3.1/../../../arm-none-eabi/lib/thumb/v7e-m+fp/hard/libc.a(lib_a-malloc.o)
 .debug_frame   0x00000000000015a0       0x4c /usr/lib/gcc/arm-none-eabi/10.3.1/../../../arm-none-eabi/lib/thumb/v7e-m+fp/hard/libc.a(lib_a-mallocr.o)
 .debug_frame   0x00000000000015ec       0x2c /usr/lib/gcc/arm-none-eabi/10.3.1/../../../arm-none-eabi/lib/thumb/v7e-m+fp/hard/libc.a(lib_a-memcmp.o)
 .debug_frame   0x0000000000001618       0x30 /usr/lib/gcc/arm-none-eabi/10.3.1/../../../arm-none-eabi/lib/thumb/v7e-m+fp/hard/libc.a(lib_a-mlock.o)
 .debug_frame   0x0000000000001648       0x2c /usr/lib/gcc/arm-none-eabi/10.3.1/../../../arm-none-eabi/lib/thumb/v7e-m+fp/hard/libc.a(lib_a-sbrkr.o)
 .debug_frame   0x0000000000001674       0x74 /usr/lib/gcc/arm-none-eabi/10.3.1/../../../arm-none-eabi/lib/thumb/v7e-m+fp/hard/libc.a(lib_a-sprintf.o)
 .debug_frame   0x00000000000016e8       0x20 /usr/lib/gcc/arm-none-eabi/10.3.1/../../../arm-none-eabi/lib/thumb/v7e-m+fp/hard/libc.a(lib_a-strcpy.o)
 .debug_frame   0x0000000000001708       0x80 /usr/lib/gcc/arm-none-eabi/10.3.1/../../../arm-none-eabi/lib/thumb/v7e-m+fp/hard/libc.a(lib_a-strtol.o)
 .debug_frame   0x0000000000001788       0x68 /usr/lib/gcc/arm-none-eabi/10.3.1/../../../arm-none-eabi/lib/thumb/v7e-m+fp/hard/libc.a(lib_a-svfprintf.o)
 .debug_frame   0x00000000000017f0       0xdc /usr/lib/gcc/arm-none-eabi/10.3.1/../../../arm-none-eabi/lib/thumb/v7e-m+fp/hard/libc.a(lib_a-dtoa.o)
 .debug_frame   0x00000000000018cc       0x20 /usr/lib/gcc/arm-none-eabi/10.3.1/../../../arm-none-eabi/lib/thumb/v7e-m+fp/hard/libc.a(lib_a-errno.o)
 .debug_frame   0x00000000000018ec       0x8c /usr/lib/gcc/arm-none-eabi/10.3.1/../../../arm-none-eabi/lib/thumb/v7e-m+fp/hard/libc.a(lib_a-freer.o)
 .debug_frame   0x0000000000001978       0x40 /usr/lib/gcc/arm-none-eabi/10.3.1/../../../arm-none-eabi/lib/thumb/v7e-m+fp/hard/libc.a(lib_a-localeconv.o)
 .debug_frame   0x00000000000019b8      0x280 /usr/lib/gcc/arm-none-eabi/10.3.1/../../../arm-none-eabi/lib/thumb/v7e-m+fp/hard/libc.a(lib_a-mprec.o)
 .debug_frame   0x0000000000001c38       0x64 /usr/lib/gcc/arm-none-eabi/10.3.1/../../../arm-none-eabi/lib/thumb/v7e-m+fp/hard/libc.a(lib_a-reent.o)
 .debug_frame   0x0000000000001c9c       0x78 /usr/lib/gcc/arm-none-eabi/10.3.1/../../../arm-none-eabi/lib/thumb/v7e-m+fp/hard/libc.a(lib_a-svfiprintf.o)
 .debug_frame   0x0000000000001d14       0x40 /usr/lib/gcc/arm-none-eabi/10.3.1/../../../arm-none-eabi/lib/thumb/v7e-m+fp/hard/libc.a(lib_a-assert.o)
 .debug_frame   0x0000000000001d54       0x28 /usr/lib/gcc/arm-none-eabi/10.3.1/../../../arm-none-eabi/lib/thumb/v7e-m+fp/hard/libc.a(lib_a-callocr.o)
 .debug_frame   0x0000000000001d7c       0x70 /usr/lib/gcc/arm-none-eabi/10.3.1/../../../arm-none-eabi/lib/thumb/v7e-m+fp/hard/libc.a(lib_a-fiprintf.o)
 .debug_frame   0x0000000000001dec       0x68 /usr/lib/gcc/arm-none-eabi/10.3.1/../../../arm-none-eabi/lib/thumb/v7e-m+fp/hard/libc.a(lib_a-locale.o)
 .debug_frame   0x0000000000001e54       0x4c /usr/lib/gcc/arm-none-eabi/10.3.1/../../../arm-none-eabi/lib/thumb/v7e-m+fp/hard/libc.a(lib_a-mbtowc_r.o)
 .debug_frame   0x0000000000001ea0       0x40 /usr/lib/gcc/arm-none-eabi/10.3.1/../../../arm-none-eabi/lib/thumb/v7e-m+fp/hard/libc.a(lib_a-memmove.o)
 .debug_frame   0x0000000000001ee0       0x2c /usr/lib/gcc/arm-none-eabi/10.3.1/../../../arm-none-eabi/lib/thumb/v7e-m+fp/hard/libc.a(lib_a-memset.o)
 .debug_frame   0x0000000000001f0c       0x48 /usr/lib/gcc/arm-none-eabi/10.3.1/../../../arm-none-eabi/lib/thumb/v7e-m+fp/hard/libc.a(lib_a-reallocr.o)
 .debug_frame   0x0000000000001f54       0x68 /usr/lib/gcc/arm-none-eabi/10.3.1/../../../arm-none-eabi/lib/thumb/v7e-m+fp/hard/libc.a(lib_a-strcmp.o)
 .debug_frame   0x0000000000001fbc       0xdc /usr/lib/gcc/arm-none-eabi/10.3.1/../../../arm-none-eabi/lib/thumb/v7e-m+fp/hard/libc.a(lib_a-vfiprintf.o)
 .debug_frame   0x0000000000002098       0x3c /usr/lib/gcc/arm-none-eabi/10.3.1/../../../arm-none-eabi/lib/thumb/v7e-m+fp/hard/libc.a(lib_a-wctomb_r.o)
 .debug_frame   0x00000000000020d4       0x2c /usr/lib/gcc/arm-none-eabi/10.3.1/../../../arm-none-eabi/lib/thumb/v7e-m+fp/hard/libc.a(lib_a-wsetup.o)
 .debug_frame   0x0000000000002100       0x28 /usr/lib/gcc/arm-none-eabi/10.3.1/../../../arm-none-eabi/lib/thumb/v7e-m+fp/hard/libc.a(lib_a-abort.o)
 .debug_frame   0x0000000000002128       0x80 /usr/lib/gcc/arm-none-eabi/10.3.1/../../../arm-none-eabi/lib/thumb/v7e-m+fp/hard/libc.a(lib_a-fflush.o)
 .debug_frame   0x00000000000021a8      0x124 /usr/lib/gcc/arm-none-eabi/10.3.1/../../../arm-none-eabi/lib/thumb/v7e-m+fp/hard/libc.a(lib_a-findfp.o)
 .debug_frame   0x00000000000022cc       0x8c /usr/lib/gcc/arm-none-eabi/10.3.1/../../../arm-none-eabi/lib/thumb/v7e-m+fp/hard/libc.a(lib_a-fputwc.o)
 .debug_frame   0x0000000000002358       0x64 /usr/lib/gcc/arm-none-eabi/10.3.1/../../../arm-none-eabi/lib/thumb/v7e-m+fp/hard/libc.a(lib_a-fvwrite.o)
 .debug_frame   0x00000000000023bc       0x54 /usr/lib/gcc/arm-none-eabi/10.3.1/../../../arm-none-eabi/lib/thumb/v7e-m+fp/hard/libc.a(lib_a-fwalk.o)
 .debug_frame   0x0000000000002410       0x70 /usr/lib/gcc/arm-none-eabi/10.3.1/../../../arm-none-eabi/lib/thumb/v7e-m+fp/hard/libc.a(lib_a-makebuf.o)
 .debug_frame   0x0000000000002480      0x114 /usr/lib/gcc/arm-none-eabi/10.3.1/../../../arm-none-eabi/lib/thumb/v7e-m+fp/hard/libc.a(lib_a-signal.o)
 .debug_frame   0x0000000000002594       0x3c /usr/lib/gcc/arm-none-eabi/10.3.1/../../../arm-none-eabi/lib/thumb/v7e-m+fp/hard/libc.a(lib_a-signalr.o)
 .debug_frame   0x00000000000025d0       0x8c /usr/lib/gcc/arm-none-eabi/10.3.1/../../../arm-none-eabi/lib/thumb/v7e-m+fp/hard/libc.a(lib_a-stdio.o)
 .debug_frame   0x000000000000265c       0x4c /usr/lib/gcc/arm-none-eabi/10.3.1/../../../arm-none-eabi/lib/thumb/v7e-m+fp/hard/libc.a(lib_a-wbuf.o)
 .debug_frame   0x00000000000026a8       0x60 /usr/lib/gcc/arm-none-eabi/10.3.1/../../../arm-none-eabi/lib/thumb/v7e-m+fp/hard/libc.a(lib_a-wcrtomb.o)
 .debug_frame   0x0000000000002708       0x2c /usr/lib/gcc/arm-none-eabi/10.3.1/../../../arm-none-eabi/lib/thumb/v7e-m+fp/hard/libc.a(lib_a-writer.o)
 .debug_frame   0x0000000000002734       0x2c /usr/lib/gcc/arm-none-eabi/10.3.1/../../../arm-none-eabi/lib/thumb/v7e-m+fp/hard/libc.a(lib_a-closer.o)
 .debug_frame   0x0000000000002760       0x84 /usr/lib/gcc/arm-none-eabi/10.3.1/../../../arm-none-eabi/lib/thumb/v7e-m+fp/hard/libc.a(lib_a-fclose.o)
 .debug_frame   0x00000000000027e4       0x2c /usr/lib/gcc/arm-none-eabi/10.3.1/../../../arm-none-eabi/lib/thumb/v7e-m+fp/hard/libc.a(lib_a-fstatr.o)
 .debug_frame   0x0000000000002810       0x2c /usr/lib/gcc/arm-none-eabi/10.3.1/../../../arm-none-eabi/lib/thumb/v7e-m+fp/hard/libc.a(lib_a-isattyr.o)
 .debug_frame   0x000000000000283c       0x2c /usr/lib/gcc/arm-none-eabi/10.3.1/../../../arm-none-eabi/lib/thumb/v7e-m+fp/hard/libc.a(lib_a-lseekr.o)
 .debug_frame   0x0000000000002868       0x2c /usr/lib/gcc/arm-none-eabi/10.3.1/../../../arm-none-eabi/lib/thumb/v7e-m+fp/hard/libc.a(lib_a-readr.o)
 .debug_frame   0x0000000000002894       0xac /usr/lib/gcc/arm-none-eabi/10.3.1/thumb/v7e-m+fp/hard/libgcc.a(_arm_addsubdf3.o)
 .debug_frame   0x0000000000002940       0x50 /usr/lib/gcc/arm-none-eabi/10.3.1/thumb/v7e-m+fp/hard/libgcc.a(_arm_muldivdf3.o)
 .debug_frame   0x0000000000002990       0xc4 /usr/lib/gcc/arm-none-eabi/10.3.1/thumb/v7e-m+fp/hard/libgcc.a(_arm_cmpdf2.o)
 .debug_frame   0x0000000000002a54       0x20 /usr/lib/gcc/arm-none-eabi/10.3.1/thumb/v7e-m+fp/hard/libgcc.a(_arm_unorddf2.o)
 .debug_frame   0x0000000000002a74       0x24 /usr/lib/gcc/arm-none-eabi/10.3.1/thumb/v7e-m+fp/hard/libgcc.a(_arm_fixdfsi.o)
 .debug_frame   0x0000000000002a98       0x4c /usr/lib/gcc/arm-none-eabi/10.3.1/thumb/v7e-m+fp/hard/libgcc.a(_arm_addsubsf3.o)
 .debug_frame   0x0000000000002ae4       0x2c /usr/lib/gcc/arm-none-eabi/10.3.1/thumb/v7e-m+fp/hard/libgcc.a(_aeabi_uldivmod.o)
 .debug_frame   0x0000000000002b10       0x34 /usr/lib/gcc/arm-none-eabi/10.3.1/thumb/v7e-m+fp/hard/libgcc.a(_udivmoddi4.o)
 .debug_frame   0x0000000000002b44       0x20 /usr/lib/gcc/arm-none-eabi/10.3.1/../../../arm-none-eabi/lib/thumb/v7e-m+fp/hard/libnosys.a(close.o)
 .debug_frame   0x0000000000002b64       0x20 /usr/lib/gcc/arm-none-eabi/10.3.1/../../../arm-none-eabi/lib/thumb/v7e-m+fp/hard/libnosys.a(fstat.o)
 .debug_frame   0x0000000000002b84       0x20 /usr/lib/gcc/arm-none-eabi/10.3.1/../../../arm-none-eabi/lib/thumb/v7e-m+fp/hard/libnosys.a(getpid.o)
 .debug_frame   0x0000000000002ba4       0x20 /usr/lib/gcc/arm-none-eabi/10.3.1/../../../arm-none-eabi/lib/thumb/v7e-m+fp/hard/libnosys.a(isatty.o)
 .debug_frame   0x0000000000002bc4       0x20 /usr/lib/gcc/arm-none-eabi/10.3.1/../../../arm-none-eabi/lib/thumb/v7e-m+fp/hard/libnosys.a(kill.o)
 .debug_frame   0x0000000000002be4       0x20 /usr/lib/gcc/arm-none-eabi/10.3.1/../../../arm-none-eabi/lib/thumb/v7e-m+fp/hard/libnosys.a(lseek.o)
 .debug_frame   0x0000000000002c04       0x20 /usr/lib/gcc/arm-none-eabi/10.3.1/../../../arm-none-eabi/lib/thumb/v7e-m+fp/hard/libnosys.a(read.o)
 .debug_frame   0x0000000000002c24       0x20 /usr/lib/gcc/arm-none-eabi/10.3.1/../../../arm-none-eabi/lib/thumb/v7e-m+fp/hard/libnosys.a(sbrk.o)
 .debug_frame   0x0000000000002c44       0x20 /usr/lib/gcc/arm-none-eabi/10.3.1/../../../arm-none-eabi/lib/thumb/v7e-m+fp/hard/libnosys.a(write.o)
 .debug_frame   0x0000000000002c64       0x20 /usr/lib/gcc/arm-none-eabi/10.3.1/../../../arm-none-eabi/lib/thumb/v7e-m+fp/hard/libnosys.a(_exit.o)

.stab           0x0000000000000000       0xcc
 .stab          0x0000000000000000       0x24 /usr/lib/gcc/arm-none-eabi/10.3.1/../../../arm-none-eabi/lib/thumb/v7e-m+fp/hard/libnosys.a(close.o)
 .stab          0x0000000000000024       0x18 /usr/lib/gcc/arm-none-eabi/10.3.1/../../../arm-none-eabi/lib/thumb/v7e-m+fp/hard/libnosys.a(fstat.o)
                                         0x24 (size before relaxing)
 .stab          0x000000000000003c       0x18 /usr/lib/gcc/arm-none-eabi/10.3.1/../../../arm-none-eabi/lib/thumb/v7e-m+fp/hard/libnosys.a(getpid.o)
                                         0x24 (size before relaxing)
 .stab          0x0000000000000054       0x18 /usr/lib/gcc/arm-none-eabi/10.3.1/../../../arm-none-eabi/lib/thumb/v7e-m+fp/hard/libnosys.a(isatty.o)
                                         0x24 (size before relaxing)
 .stab          0x000000000000006c       0x18 /usr/lib/gcc/arm-none-eabi/10.3.1/../../../arm-none-eabi/lib/thumb/v7e-m+fp/hard/libnosys.a(kill.o)
                                         0x24 (size before relaxing)
 .stab          0x0000000000000084       0x18 /usr/lib/gcc/arm-none-eabi/10.3.1/../../../arm-none-eabi/lib/thumb/v7e-m+fp/hard/libnosys.a(lseek.o)
                                         0x24 (size before relaxing)
 .stab          0x000000000000009c       0x18 /usr/lib/gcc/arm-none-eabi/10.3.1/../../../arm-none-eabi/lib/thumb/v7e-m+fp/hard/libnosys.a(read.o)
                                         0x24 (size before relaxing)
 .stab          0x00000000000000b4       0x18 /usr/lib/gcc/arm-none-eabi/10.3.1/../../../arm-none-eabi/lib/thumb/v7e-m+fp/hard/libnosys.a(write.o)
                                         0x24 (size before relaxing)

.stabstr        0x0000000000000000      0x1b9
 .stabstr       0x0000000000000000      0x1b9 /usr/lib/gcc/arm-none-eabi/10.3.1/../../../arm-none-eabi/lib/thumb/v7e-m+fp/hard/libnosys.a(close.o)

Cross Reference Table

Symbol                                            File
ArgDestroy                                        ./.obj/cli_string.o
                                                  ./.obj/terminal.o
CLI_AddCmd                                        ./.obj/terminal.o
                                                  ./.obj/my_test_commands.o
CLI_CurReset                                      ./.obj/cli_log.o
                                                  ./.obj/terminal.o
CLI_DelayMs                                       ./.obj/cli_time.o
CLI_DelayUs                                       ./.obj/cli_time.o
CLI_EnterChar                                     ./.obj/terminal.o
                                                  ./.obj/main.o
CLI_Execute                                       ./.obj/terminal.o
                                                  ./.obj/main.o
CLI_GetArgDec                                     ./.obj/terminal.o
                                                  ./.obj/my_test_commands.o
CLI_GetArgDecByFlag                               ./.obj/terminal.o
CLI_GetArgHex                                     ./.obj/terminal.o
CLI_GetArgHexByFlag                               ./.obj/terminal.o
                                                  ./.obj/my_test_commands.o
CLI_GetFormatLastTimeByMs                         ./.obj/cli_time.o
                                                  ./.obj/terminal.o
CLI_GetFormatTimeByMs                             ./.obj/cli_time.o
                                                  ./.obj/terminal.o
CLI_GetIntState                                   ./.obj/terminal.o
                                                  ./.obj/my_test_commands.o
CLI_GetLastCmd                                    ./.obj/cli_log.o
                                                  ./.obj/terminal.o
CLI_GetNextCmd                                    ./.obj/cli_log.o
                                                  ./.obj/terminal.o
CLI_Init                                          ./.obj/terminal.o
                                                  ./.obj/main.o
CLI_IsArgFlag                                     ./.obj/terminal.o
CLI_LogCmdGet                                     ./.obj/cli_log.o
CLI_LogCmdPush                                    ./.obj/cli_log.o
                                                  ./.obj/terminal.o
CLI_LogInit                                       ./.obj/cli_log.o
                                                  ./.obj/terminal.o
CLI_PrintTime                                     ./.obj/terminal.o
CLI_PrintTimeWithoutRN                            ./.obj/terminal.o
CLI_SetBaseTimeFromHMS                            ./.obj/cli_time.o
                                                  ./.obj/terminal.o
CLI_SetBaseTimeFromMs                             ./.obj/cli_time.o
                                                  ./.obj/terminal.o
Gpio_setup                                        ./.obj/main.o
INPUT_AddChar                                     ./.obj/cli_input.o
                                                  ./.obj/terminal.o
INPUT_Backspace                                   ./.obj/cli_input.o
                                                  ./.obj/terminal.o
INPUT_Cache                                       ./.obj/cli_input.o
                                                  ./.obj/terminal.o
INPUT_CursorShift                                 ./.obj/cli_input.o
INPUT_CursorTo                                    ./.obj/cli_input.o
INPUT_CursorToEnd                                 ./.obj/cli_input.o
                                                  ./.obj/terminal.o
INPUT_CursorToHome                                ./.obj/cli_input.o
                                                  ./.obj/terminal.o
INPUT_CursorToLeft                                ./.obj/cli_input.o
                                                  ./.obj/terminal.o
INPUT_CursorToRight                               ./.obj/cli_input.o
                                                  ./.obj/terminal.o
INPUT_Delete                                      ./.obj/cli_input.o
                                                  ./.obj/terminal.o
INPUT_GetBuffer                                   ./.obj/cli_input.o
                                                  ./.obj/terminal.o
INPUT_GetLastChar                                 ./.obj/cli_input.o
                                                  ./.obj/terminal.o
INPUT_Init                                        ./.obj/cli_input.o
                                                  ./.obj/terminal.o
INPUT_IsEmpty                                     ./.obj/cli_input.o
                                                  ./.obj/terminal.o
INPUT_IsFull                                      ./.obj/cli_input.o
                                                  ./.obj/terminal.o
INPUT_PutChar                                     ./.obj/cli_input.o
                                                  ./.obj/terminal.o
INPUT_Refresh                                     ./.obj/cli_input.o
                                                  ./.obj/terminal.o
INPUT_RemChar                                     ./.obj/cli_input.o
INPUT_Reset                                       ./.obj/cli_input.o
                                                  ./.obj/terminal.o
INPUT_SetBuffer                                   ./.obj/cli_input.o
                                                  ./.obj/terminal.o
Input                                             ./.obj/cli_input.o
MyTestCmds_Init                                   ./.obj/my_test_commands.o
                                                  ./.obj/main.o
Q_Free                                            ./.obj/cli_queue.o
Q_Init                                            ./.obj/cli_queue.o
                                                  ./.obj/cli_input.o
Q_IsEmpty                                         ./.obj/cli_queue.o
Q_IsEqual                                         ./.obj/cli_queue.o
                                                  ./.obj/cli_input.o
Q_IsFull                                          ./.obj/cli_queue.o
Q_Pop                                             ./.obj/cli_queue.o
Q_Push                                            ./.obj/cli_queue.o
                                                  ./.obj/cli_input.o
TUSART_GetChar                                    ./.obj/main.o
TUSART_Print                                      ./.obj/main.o
                                                  ./.obj/my_test_commands.o
                                                  ./.obj/terminal.o
                                                  ./.obj/cli_input.o
TUSART_PutChar                                    ./.obj/main.o
                                                  ./.obj/cli_input.o
TermLog                                           ./.obj/cli_log.o
Terminal                                          ./.obj/terminal.o
Time_get_counter                                  ./.obj/Time.o
                                                  ./.obj/terminal.o
                                                  ./.obj/cli_time.o
Time_reset_counter                                ./.obj/Time.o
Time_setup                                        ./.obj/Time.o
                                                  ./.obj/main.o
Uart_setup                                        ./.obj/main.o
_Balloc                                           /usr/lib/gcc/arm-none-eabi/10.3.1/../../../arm-none-eabi/lib/thumb/v7e-m+fp/hard/libc.a(lib_a-mprec.o)
                                                  /usr/lib/gcc/arm-none-eabi/10.3.1/../../../arm-none-eabi/lib/thumb/v7e-m+fp/hard/libc.a(lib_a-dtoa.o)
_Bfree                                            /usr/lib/gcc/arm-none-eabi/10.3.1/../../../arm-none-eabi/lib/thumb/v7e-m+fp/hard/libc.a(lib_a-mprec.o)
                                                  /usr/lib/gcc/arm-none-eabi/10.3.1/../../../arm-none-eabi/lib/thumb/v7e-m+fp/hard/libc.a(lib_a-dtoa.o)
_Execute                                          ./.obj/terminal.o
_ExecuteString                                    ./.obj/terminal.o
_IndexOfFlag                                      ./.obj/terminal.o
_InitHW                                           ./.obj/main.o
_InitSW                                           ./.obj/main.o
_PathLocale                                       /usr/lib/gcc/arm-none-eabi/10.3.1/../../../arm-none-eabi/lib/thumb/v7e-m+fp/hard/libc.a(lib_a-locale.o)
_PrintResultAddCmd                                ./.obj/terminal.o
_PrintResultExec                                  ./.obj/terminal.o
_PrintTime                                        ./.obj/terminal.o
__adddf3                                          /usr/lib/gcc/arm-none-eabi/10.3.1/thumb/v7e-m+fp/hard/libgcc.a(_arm_addsubdf3.o)
__addsf3                                          /usr/lib/gcc/arm-none-eabi/10.3.1/thumb/v7e-m+fp/hard/libgcc.a(_arm_addsubsf3.o)
__aeabi_cdcmpeq                                   /usr/lib/gcc/arm-none-eabi/10.3.1/thumb/v7e-m+fp/hard/libgcc.a(_arm_cmpdf2.o)
__aeabi_cdcmple                                   /usr/lib/gcc/arm-none-eabi/10.3.1/thumb/v7e-m+fp/hard/libgcc.a(_arm_cmpdf2.o)
__aeabi_cdrcmple                                  /usr/lib/gcc/arm-none-eabi/10.3.1/thumb/v7e-m+fp/hard/libgcc.a(_arm_cmpdf2.o)
__aeabi_d2iz                                      /usr/lib/gcc/arm-none-eabi/10.3.1/thumb/v7e-m+fp/hard/libgcc.a(_arm_fixdfsi.o)
                                                  /usr/lib/gcc/arm-none-eabi/10.3.1/../../../arm-none-eabi/lib/thumb/v7e-m+fp/hard/libc.a(lib_a-dtoa.o)
__aeabi_dadd                                      /usr/lib/gcc/arm-none-eabi/10.3.1/thumb/v7e-m+fp/hard/libgcc.a(_arm_addsubdf3.o)
                                                  /usr/lib/gcc/arm-none-eabi/10.3.1/../../../arm-none-eabi/lib/thumb/v7e-m+fp/hard/libc.a(lib_a-dtoa.o)
__aeabi_dcmpeq                                    /usr/lib/gcc/arm-none-eabi/10.3.1/thumb/v7e-m+fp/hard/libgcc.a(_arm_cmpdf2.o)
                                                  /usr/lib/gcc/arm-none-eabi/10.3.1/../../../arm-none-eabi/lib/thumb/v7e-m+fp/hard/libc.a(lib_a-dtoa.o)
                                                  /usr/lib/gcc/arm-none-eabi/10.3.1/../../../arm-none-eabi/lib/thumb/v7e-m+fp/hard/libc.a(lib_a-svfprintf.o)
__aeabi_dcmpge                                    /usr/lib/gcc/arm-none-eabi/10.3.1/thumb/v7e-m+fp/hard/libgcc.a(_arm_cmpdf2.o)
__aeabi_dcmpgt                                    /usr/lib/gcc/arm-none-eabi/10.3.1/thumb/v7e-m+fp/hard/libgcc.a(_arm_cmpdf2.o)
                                                  /usr/lib/gcc/arm-none-eabi/10.3.1/../../../arm-none-eabi/lib/thumb/v7e-m+fp/hard/libc.a(lib_a-dtoa.o)
__aeabi_dcmple                                    /usr/lib/gcc/arm-none-eabi/10.3.1/thumb/v7e-m+fp/hard/libgcc.a(_arm_cmpdf2.o)
                                                  /usr/lib/gcc/arm-none-eabi/10.3.1/../../../arm-none-eabi/lib/thumb/v7e-m+fp/hard/libc.a(lib_a-dtoa.o)
                                                  /usr/lib/gcc/arm-none-eabi/10.3.1/../../../arm-none-eabi/lib/thumb/v7e-m+fp/hard/libc.a(lib_a-svfprintf.o)
__aeabi_dcmplt                                    /usr/lib/gcc/arm-none-eabi/10.3.1/thumb/v7e-m+fp/hard/libgcc.a(_arm_cmpdf2.o)
                                                  /usr/lib/gcc/arm-none-eabi/10.3.1/../../../arm-none-eabi/lib/thumb/v7e-m+fp/hard/libc.a(lib_a-dtoa.o)
                                                  /usr/lib/gcc/arm-none-eabi/10.3.1/../../../arm-none-eabi/lib/thumb/v7e-m+fp/hard/libc.a(lib_a-svfprintf.o)
__aeabi_dcmpun                                    /usr/lib/gcc/arm-none-eabi/10.3.1/thumb/v7e-m+fp/hard/libgcc.a(_arm_unorddf2.o)
                                                  /usr/lib/gcc/arm-none-eabi/10.3.1/../../../arm-none-eabi/lib/thumb/v7e-m+fp/hard/libc.a(lib_a-svfprintf.o)
__aeabi_ddiv                                      /usr/lib/gcc/arm-none-eabi/10.3.1/thumb/v7e-m+fp/hard/libgcc.a(_arm_muldivdf3.o)
                                                  /usr/lib/gcc/arm-none-eabi/10.3.1/../../../arm-none-eabi/lib/thumb/v7e-m+fp/hard/libc.a(lib_a-mprec.o)
                                                  /usr/lib/gcc/arm-none-eabi/10.3.1/../../../arm-none-eabi/lib/thumb/v7e-m+fp/hard/libc.a(lib_a-dtoa.o)
__aeabi_dmul                                      /usr/lib/gcc/arm-none-eabi/10.3.1/thumb/v7e-m+fp/hard/libgcc.a(_arm_muldivdf3.o)
                                                  /usr/lib/gcc/arm-none-eabi/10.3.1/thumb/v7e-m+fp/hard/libgcc.a(_arm_muldf3.o)
                                                  /usr/lib/gcc/arm-none-eabi/10.3.1/../../../arm-none-eabi/lib/thumb/v7e-m+fp/hard/libc.a(lib_a-mprec.o)
                                                  /usr/lib/gcc/arm-none-eabi/10.3.1/../../../arm-none-eabi/lib/thumb/v7e-m+fp/hard/libc.a(lib_a-dtoa.o)
__aeabi_drsub                                     /usr/lib/gcc/arm-none-eabi/10.3.1/thumb/v7e-m+fp/hard/libgcc.a(_arm_addsubdf3.o)
__aeabi_dsub                                      /usr/lib/gcc/arm-none-eabi/10.3.1/thumb/v7e-m+fp/hard/libgcc.a(_arm_addsubdf3.o)
                                                  /usr/lib/gcc/arm-none-eabi/10.3.1/../../../arm-none-eabi/lib/thumb/v7e-m+fp/hard/libc.a(lib_a-dtoa.o)
__aeabi_f2d                                       /usr/lib/gcc/arm-none-eabi/10.3.1/thumb/v7e-m+fp/hard/libgcc.a(_arm_addsubdf3.o)
__aeabi_fadd                                      /usr/lib/gcc/arm-none-eabi/10.3.1/thumb/v7e-m+fp/hard/libgcc.a(_arm_addsubsf3.o)
__aeabi_frsub                                     /usr/lib/gcc/arm-none-eabi/10.3.1/thumb/v7e-m+fp/hard/libgcc.a(_arm_addsubsf3.o)
__aeabi_fsub                                      /usr/lib/gcc/arm-none-eabi/10.3.1/thumb/v7e-m+fp/hard/libgcc.a(_arm_addsubsf3.o)
__aeabi_i2d                                       /usr/lib/gcc/arm-none-eabi/10.3.1/thumb/v7e-m+fp/hard/libgcc.a(_arm_addsubdf3.o)
                                                  /usr/lib/gcc/arm-none-eabi/10.3.1/../../../arm-none-eabi/lib/thumb/v7e-m+fp/hard/libc.a(lib_a-dtoa.o)
__aeabi_i2f                                       /usr/lib/gcc/arm-none-eabi/10.3.1/thumb/v7e-m+fp/hard/libgcc.a(_arm_addsubsf3.o)
__aeabi_idiv0                                     /usr/lib/gcc/arm-none-eabi/10.3.1/thumb/v7e-m+fp/hard/libgcc.a(_dvmd_tls.o)
__aeabi_l2d                                       /usr/lib/gcc/arm-none-eabi/10.3.1/thumb/v7e-m+fp/hard/libgcc.a(_arm_addsubdf3.o)
__aeabi_l2f                                       /usr/lib/gcc/arm-none-eabi/10.3.1/thumb/v7e-m+fp/hard/libgcc.a(_arm_addsubsf3.o)
__aeabi_ldiv0                                     /usr/lib/gcc/arm-none-eabi/10.3.1/thumb/v7e-m+fp/hard/libgcc.a(_dvmd_tls.o)
                                                  /usr/lib/gcc/arm-none-eabi/10.3.1/thumb/v7e-m+fp/hard/libgcc.a(_aeabi_uldivmod.o)
__aeabi_ui2d                                      /usr/lib/gcc/arm-none-eabi/10.3.1/thumb/v7e-m+fp/hard/libgcc.a(_arm_addsubdf3.o)
                                                  /usr/lib/gcc/arm-none-eabi/10.3.1/../../../arm-none-eabi/lib/thumb/v7e-m+fp/hard/libc.a(lib_a-dtoa.o)
__aeabi_ui2f                                      /usr/lib/gcc/arm-none-eabi/10.3.1/thumb/v7e-m+fp/hard/libgcc.a(_arm_addsubsf3.o)
__aeabi_ul2d                                      /usr/lib/gcc/arm-none-eabi/10.3.1/thumb/v7e-m+fp/hard/libgcc.a(_arm_addsubdf3.o)
__aeabi_ul2f                                      /usr/lib/gcc/arm-none-eabi/10.3.1/thumb/v7e-m+fp/hard/libgcc.a(_arm_addsubsf3.o)
                                                  ./.obj/terminal.o
                                                  ./.obj/cli_time.o
__aeabi_uldivmod                                  /usr/lib/gcc/arm-none-eabi/10.3.1/thumb/v7e-m+fp/hard/libgcc.a(_aeabi_uldivmod.o)
                                                  /usr/lib/gcc/arm-none-eabi/10.3.1/../../../arm-none-eabi/lib/thumb/v7e-m+fp/hard/libc.a(lib_a-vfiprintf.o)
                                                  /usr/lib/gcc/arm-none-eabi/10.3.1/../../../arm-none-eabi/lib/thumb/v7e-m+fp/hard/libc.a(lib_a-svfiprintf.o)
                                                  /usr/lib/gcc/arm-none-eabi/10.3.1/../../../arm-none-eabi/lib/thumb/v7e-m+fp/hard/libc.a(lib_a-svfprintf.o)
__any_on                                          /usr/lib/gcc/arm-none-eabi/10.3.1/../../../arm-none-eabi/lib/thumb/v7e-m+fp/hard/libc.a(lib_a-mprec.o)
__ascii_mbtowc                                    /usr/lib/gcc/arm-none-eabi/10.3.1/../../../arm-none-eabi/lib/thumb/v7e-m+fp/hard/libc.a(lib_a-mbtowc_r.o)
                                                  /usr/lib/gcc/arm-none-eabi/10.3.1/../../../arm-none-eabi/lib/thumb/v7e-m+fp/hard/libc.a(lib_a-locale.o)
__ascii_wctomb                                    /usr/lib/gcc/arm-none-eabi/10.3.1/../../../arm-none-eabi/lib/thumb/v7e-m+fp/hard/libc.a(lib_a-wctomb_r.o)
                                                  /usr/lib/gcc/arm-none-eabi/10.3.1/../../../arm-none-eabi/lib/thumb/v7e-m+fp/hard/libc.a(lib_a-locale.o)
__assert                                          /usr/lib/gcc/arm-none-eabi/10.3.1/../../../arm-none-eabi/lib/thumb/v7e-m+fp/hard/libc.a(lib_a-assert.o)
__assert_func                                     /usr/lib/gcc/arm-none-eabi/10.3.1/../../../arm-none-eabi/lib/thumb/v7e-m+fp/hard/libc.a(lib_a-assert.o)
                                                  /usr/lib/gcc/arm-none-eabi/10.3.1/../../../arm-none-eabi/lib/thumb/v7e-m+fp/hard/libc.a(lib_a-mprec.o)
                                                  /usr/lib/gcc/arm-none-eabi/10.3.1/../../../arm-none-eabi/lib/thumb/v7e-m+fp/hard/libc.a(lib_a-dtoa.o)
__b2d                                             /usr/lib/gcc/arm-none-eabi/10.3.1/../../../arm-none-eabi/lib/thumb/v7e-m+fp/hard/libc.a(lib_a-mprec.o)
__cmpdf2                                          /usr/lib/gcc/arm-none-eabi/10.3.1/thumb/v7e-m+fp/hard/libgcc.a(_arm_cmpdf2.o)
__copybits                                        /usr/lib/gcc/arm-none-eabi/10.3.1/../../../arm-none-eabi/lib/thumb/v7e-m+fp/hard/libc.a(lib_a-mprec.o)
__d2b                                             /usr/lib/gcc/arm-none-eabi/10.3.1/../../../arm-none-eabi/lib/thumb/v7e-m+fp/hard/libc.a(lib_a-mprec.o)
                                                  /usr/lib/gcc/arm-none-eabi/10.3.1/../../../arm-none-eabi/lib/thumb/v7e-m+fp/hard/libc.a(lib_a-dtoa.o)
__divdf3                                          /usr/lib/gcc/arm-none-eabi/10.3.1/thumb/v7e-m+fp/hard/libgcc.a(_arm_muldivdf3.o)
__eqdf2                                           /usr/lib/gcc/arm-none-eabi/10.3.1/thumb/v7e-m+fp/hard/libgcc.a(_arm_cmpdf2.o)
__errno                                           /usr/lib/gcc/arm-none-eabi/10.3.1/../../../arm-none-eabi/lib/thumb/v7e-m+fp/hard/libc.a(lib_a-errno.o)
                                                  /usr/lib/gcc/arm-none-eabi/10.3.1/../../../arm-none-eabi/lib/thumb/v7e-m+fp/hard/libc.a(lib_a-strtol.o)
__extendsfdf2                                     /usr/lib/gcc/arm-none-eabi/10.3.1/thumb/v7e-m+fp/hard/libgcc.a(_arm_addsubdf3.o)
__fini_array_end                                  ./libopencm3/lib/libopencm3_stm32f4.a(vector.o)
__fini_array_start                                ./libopencm3/lib/libopencm3_stm32f4.a(vector.o)
__fixdfsi                                         /usr/lib/gcc/arm-none-eabi/10.3.1/thumb/v7e-m+fp/hard/libgcc.a(_arm_fixdfsi.o)
__floatdidf                                       /usr/lib/gcc/arm-none-eabi/10.3.1/thumb/v7e-m+fp/hard/libgcc.a(_arm_addsubdf3.o)
__floatdisf                                       /usr/lib/gcc/arm-none-eabi/10.3.1/thumb/v7e-m+fp/hard/libgcc.a(_arm_addsubsf3.o)
__floatsidf                                       /usr/lib/gcc/arm-none-eabi/10.3.1/thumb/v7e-m+fp/hard/libgcc.a(_arm_addsubdf3.o)
__floatsisf                                       /usr/lib/gcc/arm-none-eabi/10.3.1/thumb/v7e-m+fp/hard/libgcc.a(_arm_addsubsf3.o)
__floatundidf                                     /usr/lib/gcc/arm-none-eabi/10.3.1/thumb/v7e-m+fp/hard/libgcc.a(_arm_addsubdf3.o)
__floatundisf                                     /usr/lib/gcc/arm-none-eabi/10.3.1/thumb/v7e-m+fp/hard/libgcc.a(_arm_addsubsf3.o)
__floatunsidf                                     /usr/lib/gcc/arm-none-eabi/10.3.1/thumb/v7e-m+fp/hard/libgcc.a(_arm_addsubdf3.o)
__floatunsisf                                     /usr/lib/gcc/arm-none-eabi/10.3.1/thumb/v7e-m+fp/hard/libgcc.a(_arm_addsubsf3.o)
__fp_lock_all                                     /usr/lib/gcc/arm-none-eabi/10.3.1/../../../arm-none-eabi/lib/thumb/v7e-m+fp/hard/libc.a(lib_a-findfp.o)
__fp_unlock_all                                   /usr/lib/gcc/arm-none-eabi/10.3.1/../../../arm-none-eabi/lib/thumb/v7e-m+fp/hard/libc.a(lib_a-findfp.o)
__fputwc                                          /usr/lib/gcc/arm-none-eabi/10.3.1/../../../arm-none-eabi/lib/thumb/v7e-m+fp/hard/libc.a(lib_a-fputwc.o)
__gedf2                                           /usr/lib/gcc/arm-none-eabi/10.3.1/thumb/v7e-m+fp/hard/libgcc.a(_arm_cmpdf2.o)
__global_locale                                   /usr/lib/gcc/arm-none-eabi/10.3.1/../../../arm-none-eabi/lib/thumb/v7e-m+fp/hard/libc.a(lib_a-locale.o)
                                                  /usr/lib/gcc/arm-none-eabi/10.3.1/../../../arm-none-eabi/lib/thumb/v7e-m+fp/hard/libc.a(lib_a-wcrtomb.o)
                                                  /usr/lib/gcc/arm-none-eabi/10.3.1/../../../arm-none-eabi/lib/thumb/v7e-m+fp/hard/libc.a(lib_a-wctomb_r.o)
                                                  /usr/lib/gcc/arm-none-eabi/10.3.1/../../../arm-none-eabi/lib/thumb/v7e-m+fp/hard/libc.a(lib_a-mbtowc_r.o)
                                                  /usr/lib/gcc/arm-none-eabi/10.3.1/../../../arm-none-eabi/lib/thumb/v7e-m+fp/hard/libc.a(lib_a-localeconv.o)
__gtdf2                                           /usr/lib/gcc/arm-none-eabi/10.3.1/thumb/v7e-m+fp/hard/libgcc.a(_arm_cmpdf2.o)
__hi0bits                                         /usr/lib/gcc/arm-none-eabi/10.3.1/../../../arm-none-eabi/lib/thumb/v7e-m+fp/hard/libc.a(lib_a-mprec.o)
                                                  /usr/lib/gcc/arm-none-eabi/10.3.1/../../../arm-none-eabi/lib/thumb/v7e-m+fp/hard/libc.a(lib_a-dtoa.o)
__i2b                                             /usr/lib/gcc/arm-none-eabi/10.3.1/../../../arm-none-eabi/lib/thumb/v7e-m+fp/hard/libc.a(lib_a-mprec.o)
                                                  /usr/lib/gcc/arm-none-eabi/10.3.1/../../../arm-none-eabi/lib/thumb/v7e-m+fp/hard/libc.a(lib_a-dtoa.o)
__init_array_end                                  ./libopencm3/lib/libopencm3_stm32f4.a(vector.o)
__init_array_start                                ./libopencm3/lib/libopencm3_stm32f4.a(vector.o)
__ledf2                                           /usr/lib/gcc/arm-none-eabi/10.3.1/thumb/v7e-m+fp/hard/libgcc.a(_arm_cmpdf2.o)
__lo0bits                                         /usr/lib/gcc/arm-none-eabi/10.3.1/../../../arm-none-eabi/lib/thumb/v7e-m+fp/hard/libc.a(lib_a-mprec.o)
__locale_mb_cur_max                               /usr/lib/gcc/arm-none-eabi/10.3.1/../../../arm-none-eabi/lib/thumb/v7e-m+fp/hard/libc.a(lib_a-locale.o)
                                                  /usr/lib/gcc/arm-none-eabi/10.3.1/../../../arm-none-eabi/lib/thumb/v7e-m+fp/hard/libc.a(lib_a-fputwc.o)
__localeconv_l                                    /usr/lib/gcc/arm-none-eabi/10.3.1/../../../arm-none-eabi/lib/thumb/v7e-m+fp/hard/libc.a(lib_a-localeconv.o)
__lshift                                          /usr/lib/gcc/arm-none-eabi/10.3.1/../../../arm-none-eabi/lib/thumb/v7e-m+fp/hard/libc.a(lib_a-mprec.o)
                                                  /usr/lib/gcc/arm-none-eabi/10.3.1/../../../arm-none-eabi/lib/thumb/v7e-m+fp/hard/libc.a(lib_a-dtoa.o)
__ltdf2                                           /usr/lib/gcc/arm-none-eabi/10.3.1/thumb/v7e-m+fp/hard/libgcc.a(_arm_cmpdf2.o)
__malloc_av_                                      /usr/lib/gcc/arm-none-eabi/10.3.1/../../../arm-none-eabi/lib/thumb/v7e-m+fp/hard/libc.a(lib_a-mallocr.o)
                                                  /usr/lib/gcc/arm-none-eabi/10.3.1/../../../arm-none-eabi/lib/thumb/v7e-m+fp/hard/libc.a(lib_a-reallocr.o)
                                                  /usr/lib/gcc/arm-none-eabi/10.3.1/../../../arm-none-eabi/lib/thumb/v7e-m+fp/hard/libc.a(lib_a-freer.o)
__malloc_current_mallinfo                         /usr/lib/gcc/arm-none-eabi/10.3.1/../../../arm-none-eabi/lib/thumb/v7e-m+fp/hard/libc.a(lib_a-mallocr.o)
                                                  /usr/lib/gcc/arm-none-eabi/10.3.1/../../../arm-none-eabi/lib/thumb/v7e-m+fp/hard/libc.a(lib_a-freer.o)
__malloc_lock                                     /usr/lib/gcc/arm-none-eabi/10.3.1/../../../arm-none-eabi/lib/thumb/v7e-m+fp/hard/libc.a(lib_a-mlock.o)
                                                  /usr/lib/gcc/arm-none-eabi/10.3.1/../../../arm-none-eabi/lib/thumb/v7e-m+fp/hard/libc.a(lib_a-reallocr.o)
                                                  /usr/lib/gcc/arm-none-eabi/10.3.1/../../../arm-none-eabi/lib/thumb/v7e-m+fp/hard/libc.a(lib_a-freer.o)
                                                  /usr/lib/gcc/arm-none-eabi/10.3.1/../../../arm-none-eabi/lib/thumb/v7e-m+fp/hard/libc.a(lib_a-mallocr.o)
__malloc_max_sbrked_mem                           /usr/lib/gcc/arm-none-eabi/10.3.1/../../../arm-none-eabi/lib/thumb/v7e-m+fp/hard/libc.a(lib_a-mallocr.o)
__malloc_max_total_mem                            /usr/lib/gcc/arm-none-eabi/10.3.1/../../../arm-none-eabi/lib/thumb/v7e-m+fp/hard/libc.a(lib_a-mallocr.o)
__malloc_sbrk_base                                /usr/lib/gcc/arm-none-eabi/10.3.1/../../../arm-none-eabi/lib/thumb/v7e-m+fp/hard/libc.a(lib_a-mallocr.o)
                                                  /usr/lib/gcc/arm-none-eabi/10.3.1/../../../arm-none-eabi/lib/thumb/v7e-m+fp/hard/libc.a(lib_a-freer.o)
__malloc_top_pad                                  /usr/lib/gcc/arm-none-eabi/10.3.1/../../../arm-none-eabi/lib/thumb/v7e-m+fp/hard/libc.a(lib_a-mallocr.o)
                                                  /usr/lib/gcc/arm-none-eabi/10.3.1/../../../arm-none-eabi/lib/thumb/v7e-m+fp/hard/libc.a(lib_a-freer.o)
__malloc_trim_threshold                           /usr/lib/gcc/arm-none-eabi/10.3.1/../../../arm-none-eabi/lib/thumb/v7e-m+fp/hard/libc.a(lib_a-mallocr.o)
                                                  /usr/lib/gcc/arm-none-eabi/10.3.1/../../../arm-none-eabi/lib/thumb/v7e-m+fp/hard/libc.a(lib_a-freer.o)
__malloc_unlock                                   /usr/lib/gcc/arm-none-eabi/10.3.1/../../../arm-none-eabi/lib/thumb/v7e-m+fp/hard/libc.a(lib_a-mlock.o)
                                                  /usr/lib/gcc/arm-none-eabi/10.3.1/../../../arm-none-eabi/lib/thumb/v7e-m+fp/hard/libc.a(lib_a-reallocr.o)
                                                  /usr/lib/gcc/arm-none-eabi/10.3.1/../../../arm-none-eabi/lib/thumb/v7e-m+fp/hard/libc.a(lib_a-freer.o)
                                                  /usr/lib/gcc/arm-none-eabi/10.3.1/../../../arm-none-eabi/lib/thumb/v7e-m+fp/hard/libc.a(lib_a-mallocr.o)
__mcmp                                            /usr/lib/gcc/arm-none-eabi/10.3.1/../../../arm-none-eabi/lib/thumb/v7e-m+fp/hard/libc.a(lib_a-mprec.o)
                                                  /usr/lib/gcc/arm-none-eabi/10.3.1/../../../arm-none-eabi/lib/thumb/v7e-m+fp/hard/libc.a(lib_a-dtoa.o)
__mdiff                                           /usr/lib/gcc/arm-none-eabi/10.3.1/../../../arm-none-eabi/lib/thumb/v7e-m+fp/hard/libc.a(lib_a-mprec.o)
                                                  /usr/lib/gcc/arm-none-eabi/10.3.1/../../../arm-none-eabi/lib/thumb/v7e-m+fp/hard/libc.a(lib_a-dtoa.o)
__mprec_bigtens                                   /usr/lib/gcc/arm-none-eabi/10.3.1/../../../arm-none-eabi/lib/thumb/v7e-m+fp/hard/libc.a(lib_a-mprec.o)
                                                  /usr/lib/gcc/arm-none-eabi/10.3.1/../../../arm-none-eabi/lib/thumb/v7e-m+fp/hard/libc.a(lib_a-dtoa.o)
__mprec_tens                                      /usr/lib/gcc/arm-none-eabi/10.3.1/../../../arm-none-eabi/lib/thumb/v7e-m+fp/hard/libc.a(lib_a-mprec.o)
                                                  /usr/lib/gcc/arm-none-eabi/10.3.1/../../../arm-none-eabi/lib/thumb/v7e-m+fp/hard/libc.a(lib_a-dtoa.o)
__mprec_tinytens                                  /usr/lib/gcc/arm-none-eabi/10.3.1/../../../arm-none-eabi/lib/thumb/v7e-m+fp/hard/libc.a(lib_a-mprec.o)
__muldf3                                          /usr/lib/gcc/arm-none-eabi/10.3.1/thumb/v7e-m+fp/hard/libgcc.a(_arm_muldivdf3.o)
                                                  /usr/lib/gcc/arm-none-eabi/10.3.1/thumb/v7e-m+fp/hard/libgcc.a(_arm_muldf3.o)
__multadd                                         /usr/lib/gcc/arm-none-eabi/10.3.1/../../../arm-none-eabi/lib/thumb/v7e-m+fp/hard/libc.a(lib_a-mprec.o)
                                                  /usr/lib/gcc/arm-none-eabi/10.3.1/../../../arm-none-eabi/lib/thumb/v7e-m+fp/hard/libc.a(lib_a-dtoa.o)
__multiply                                        /usr/lib/gcc/arm-none-eabi/10.3.1/../../../arm-none-eabi/lib/thumb/v7e-m+fp/hard/libc.a(lib_a-mprec.o)
                                                  /usr/lib/gcc/arm-none-eabi/10.3.1/../../../arm-none-eabi/lib/thumb/v7e-m+fp/hard/libc.a(lib_a-dtoa.o)
__nedf2                                           /usr/lib/gcc/arm-none-eabi/10.3.1/thumb/v7e-m+fp/hard/libgcc.a(_arm_cmpdf2.o)
__pow5mult                                        /usr/lib/gcc/arm-none-eabi/10.3.1/../../../arm-none-eabi/lib/thumb/v7e-m+fp/hard/libc.a(lib_a-mprec.o)
                                                  /usr/lib/gcc/arm-none-eabi/10.3.1/../../../arm-none-eabi/lib/thumb/v7e-m+fp/hard/libc.a(lib_a-dtoa.o)
__preinit_array_end                               ./libopencm3/lib/libopencm3_stm32f4.a(vector.o)
__preinit_array_start                             ./libopencm3/lib/libopencm3_stm32f4.a(vector.o)
__ratio                                           /usr/lib/gcc/arm-none-eabi/10.3.1/../../../arm-none-eabi/lib/thumb/v7e-m+fp/hard/libc.a(lib_a-mprec.o)
__s2b                                             /usr/lib/gcc/arm-none-eabi/10.3.1/../../../arm-none-eabi/lib/thumb/v7e-m+fp/hard/libc.a(lib_a-mprec.o)
__sclose                                          /usr/lib/gcc/arm-none-eabi/10.3.1/../../../arm-none-eabi/lib/thumb/v7e-m+fp/hard/libc.a(lib_a-stdio.o)
                                                  /usr/lib/gcc/arm-none-eabi/10.3.1/../../../arm-none-eabi/lib/thumb/v7e-m+fp/hard/libc.a(lib_a-findfp.o)
__seofread                                        /usr/lib/gcc/arm-none-eabi/10.3.1/../../../arm-none-eabi/lib/thumb/v7e-m+fp/hard/libc.a(lib_a-stdio.o)
__sflush_r                                        /usr/lib/gcc/arm-none-eabi/10.3.1/../../../arm-none-eabi/lib/thumb/v7e-m+fp/hard/libc.a(lib_a-fflush.o)
                                                  /usr/lib/gcc/arm-none-eabi/10.3.1/../../../arm-none-eabi/lib/thumb/v7e-m+fp/hard/libc.a(lib_a-fclose.o)
__sfmoreglue                                      /usr/lib/gcc/arm-none-eabi/10.3.1/../../../arm-none-eabi/lib/thumb/v7e-m+fp/hard/libc.a(lib_a-findfp.o)
__sfp                                             /usr/lib/gcc/arm-none-eabi/10.3.1/../../../arm-none-eabi/lib/thumb/v7e-m+fp/hard/libc.a(lib_a-findfp.o)
__sfp_lock_acquire                                /usr/lib/gcc/arm-none-eabi/10.3.1/../../../arm-none-eabi/lib/thumb/v7e-m+fp/hard/libc.a(lib_a-findfp.o)
                                                  /usr/lib/gcc/arm-none-eabi/10.3.1/../../../arm-none-eabi/lib/thumb/v7e-m+fp/hard/libc.a(lib_a-fclose.o)
__sfp_lock_release                                /usr/lib/gcc/arm-none-eabi/10.3.1/../../../arm-none-eabi/lib/thumb/v7e-m+fp/hard/libc.a(lib_a-findfp.o)
                                                  /usr/lib/gcc/arm-none-eabi/10.3.1/../../../arm-none-eabi/lib/thumb/v7e-m+fp/hard/libc.a(lib_a-fclose.o)
__sfvwrite_r                                      /usr/lib/gcc/arm-none-eabi/10.3.1/../../../arm-none-eabi/lib/thumb/v7e-m+fp/hard/libc.a(lib_a-fvwrite.o)
                                                  /usr/lib/gcc/arm-none-eabi/10.3.1/../../../arm-none-eabi/lib/thumb/v7e-m+fp/hard/libc.a(lib_a-vfiprintf.o)
__sigtramp                                        /usr/lib/gcc/arm-none-eabi/10.3.1/../../../arm-none-eabi/lib/thumb/v7e-m+fp/hard/libc.a(lib_a-signal.o)
__sigtramp_r                                      /usr/lib/gcc/arm-none-eabi/10.3.1/../../../arm-none-eabi/lib/thumb/v7e-m+fp/hard/libc.a(lib_a-signal.o)
__sinit                                           /usr/lib/gcc/arm-none-eabi/10.3.1/../../../arm-none-eabi/lib/thumb/v7e-m+fp/hard/libc.a(lib_a-findfp.o)
                                                  /usr/lib/gcc/arm-none-eabi/10.3.1/../../../arm-none-eabi/lib/thumb/v7e-m+fp/hard/libc.a(lib_a-fclose.o)
                                                  /usr/lib/gcc/arm-none-eabi/10.3.1/../../../arm-none-eabi/lib/thumb/v7e-m+fp/hard/libc.a(lib_a-wbuf.o)
                                                  /usr/lib/gcc/arm-none-eabi/10.3.1/../../../arm-none-eabi/lib/thumb/v7e-m+fp/hard/libc.a(lib_a-fputwc.o)
                                                  /usr/lib/gcc/arm-none-eabi/10.3.1/../../../arm-none-eabi/lib/thumb/v7e-m+fp/hard/libc.a(lib_a-fflush.o)
                                                  /usr/lib/gcc/arm-none-eabi/10.3.1/../../../arm-none-eabi/lib/thumb/v7e-m+fp/hard/libc.a(lib_a-wsetup.o)
                                                  /usr/lib/gcc/arm-none-eabi/10.3.1/../../../arm-none-eabi/lib/thumb/v7e-m+fp/hard/libc.a(lib_a-vfiprintf.o)
__sinit_lock_acquire                              /usr/lib/gcc/arm-none-eabi/10.3.1/../../../arm-none-eabi/lib/thumb/v7e-m+fp/hard/libc.a(lib_a-findfp.o)
__sinit_lock_release                              /usr/lib/gcc/arm-none-eabi/10.3.1/../../../arm-none-eabi/lib/thumb/v7e-m+fp/hard/libc.a(lib_a-findfp.o)
__smakebuf_r                                      /usr/lib/gcc/arm-none-eabi/10.3.1/../../../arm-none-eabi/lib/thumb/v7e-m+fp/hard/libc.a(lib_a-makebuf.o)
                                                  /usr/lib/gcc/arm-none-eabi/10.3.1/../../../arm-none-eabi/lib/thumb/v7e-m+fp/hard/libc.a(lib_a-wsetup.o)
__sprint_r                                        /usr/lib/gcc/arm-none-eabi/10.3.1/../../../arm-none-eabi/lib/thumb/v7e-m+fp/hard/libc.a(lib_a-vfiprintf.o)
__sread                                           /usr/lib/gcc/arm-none-eabi/10.3.1/../../../arm-none-eabi/lib/thumb/v7e-m+fp/hard/libc.a(lib_a-stdio.o)
                                                  /usr/lib/gcc/arm-none-eabi/10.3.1/../../../arm-none-eabi/lib/thumb/v7e-m+fp/hard/libc.a(lib_a-findfp.o)
__sseek                                           /usr/lib/gcc/arm-none-eabi/10.3.1/../../../arm-none-eabi/lib/thumb/v7e-m+fp/hard/libc.a(lib_a-stdio.o)
                                                  /usr/lib/gcc/arm-none-eabi/10.3.1/../../../arm-none-eabi/lib/thumb/v7e-m+fp/hard/libc.a(lib_a-findfp.o)
__ssprint_r                                       /usr/lib/gcc/arm-none-eabi/10.3.1/../../../arm-none-eabi/lib/thumb/v7e-m+fp/hard/libc.a(lib_a-svfiprintf.o)
                                                  /usr/lib/gcc/arm-none-eabi/10.3.1/../../../arm-none-eabi/lib/thumb/v7e-m+fp/hard/libc.a(lib_a-svfprintf.o)
__subdf3                                          /usr/lib/gcc/arm-none-eabi/10.3.1/thumb/v7e-m+fp/hard/libgcc.a(_arm_addsubdf3.o)
__subsf3                                          /usr/lib/gcc/arm-none-eabi/10.3.1/thumb/v7e-m+fp/hard/libgcc.a(_arm_addsubsf3.o)
__swbuf                                           /usr/lib/gcc/arm-none-eabi/10.3.1/../../../arm-none-eabi/lib/thumb/v7e-m+fp/hard/libc.a(lib_a-wbuf.o)
__swbuf_r                                         /usr/lib/gcc/arm-none-eabi/10.3.1/../../../arm-none-eabi/lib/thumb/v7e-m+fp/hard/libc.a(lib_a-wbuf.o)
                                                  /usr/lib/gcc/arm-none-eabi/10.3.1/../../../arm-none-eabi/lib/thumb/v7e-m+fp/hard/libc.a(lib_a-fputwc.o)
__swhatbuf_r                                      /usr/lib/gcc/arm-none-eabi/10.3.1/../../../arm-none-eabi/lib/thumb/v7e-m+fp/hard/libc.a(lib_a-makebuf.o)
__swrite                                          /usr/lib/gcc/arm-none-eabi/10.3.1/../../../arm-none-eabi/lib/thumb/v7e-m+fp/hard/libc.a(lib_a-stdio.o)
                                                  /usr/lib/gcc/arm-none-eabi/10.3.1/../../../arm-none-eabi/lib/thumb/v7e-m+fp/hard/libc.a(lib_a-findfp.o)
__swsetup_r                                       /usr/lib/gcc/arm-none-eabi/10.3.1/../../../arm-none-eabi/lib/thumb/v7e-m+fp/hard/libc.a(lib_a-wsetup.o)
                                                  /usr/lib/gcc/arm-none-eabi/10.3.1/../../../arm-none-eabi/lib/thumb/v7e-m+fp/hard/libc.a(lib_a-wbuf.o)
                                                  /usr/lib/gcc/arm-none-eabi/10.3.1/../../../arm-none-eabi/lib/thumb/v7e-m+fp/hard/libc.a(lib_a-fvwrite.o)
                                                  /usr/lib/gcc/arm-none-eabi/10.3.1/../../../arm-none-eabi/lib/thumb/v7e-m+fp/hard/libc.a(lib_a-vfiprintf.o)
__udivmoddi4                                      /usr/lib/gcc/arm-none-eabi/10.3.1/thumb/v7e-m+fp/hard/libgcc.a(_udivmoddi4.o)
                                                  /usr/lib/gcc/arm-none-eabi/10.3.1/thumb/v7e-m+fp/hard/libgcc.a(_aeabi_uldivmod.o)
__ulp                                             /usr/lib/gcc/arm-none-eabi/10.3.1/../../../arm-none-eabi/lib/thumb/v7e-m+fp/hard/libc.a(lib_a-mprec.o)
__unorddf2                                        /usr/lib/gcc/arm-none-eabi/10.3.1/thumb/v7e-m+fp/hard/libgcc.a(_arm_unorddf2.o)
_calloc_r                                         /usr/lib/gcc/arm-none-eabi/10.3.1/../../../arm-none-eabi/lib/thumb/v7e-m+fp/hard/libc.a(lib_a-callocr.o)
                                                  /usr/lib/gcc/arm-none-eabi/10.3.1/../../../arm-none-eabi/lib/thumb/v7e-m+fp/hard/libc.a(lib_a-mprec.o)
_cleanup                                          /usr/lib/gcc/arm-none-eabi/10.3.1/../../../arm-none-eabi/lib/thumb/v7e-m+fp/hard/libc.a(lib_a-findfp.o)
_cleanup_r                                        /usr/lib/gcc/arm-none-eabi/10.3.1/../../../arm-none-eabi/lib/thumb/v7e-m+fp/hard/libc.a(lib_a-findfp.o)
                                                  /usr/lib/gcc/arm-none-eabi/10.3.1/../../../arm-none-eabi/lib/thumb/v7e-m+fp/hard/libc.a(lib_a-makebuf.o)
_close                                            /usr/lib/gcc/arm-none-eabi/10.3.1/../../../arm-none-eabi/lib/thumb/v7e-m+fp/hard/libnosys.a(close.o)
                                                  /usr/lib/gcc/arm-none-eabi/10.3.1/../../../arm-none-eabi/lib/thumb/v7e-m+fp/hard/libc.a(lib_a-closer.o)
_close_r                                          /usr/lib/gcc/arm-none-eabi/10.3.1/../../../arm-none-eabi/lib/thumb/v7e-m+fp/hard/libc.a(lib_a-closer.o)
                                                  /usr/lib/gcc/arm-none-eabi/10.3.1/../../../arm-none-eabi/lib/thumb/v7e-m+fp/hard/libc.a(lib_a-stdio.o)
_ctype_                                           /usr/lib/gcc/arm-none-eabi/10.3.1/../../../arm-none-eabi/lib/thumb/v7e-m+fp/hard/libc.a(lib_a-ctype_.o)
                                                  /usr/lib/gcc/arm-none-eabi/10.3.1/../../../arm-none-eabi/lib/thumb/v7e-m+fp/hard/libc.a(lib_a-locale.o)
                                                  /usr/lib/gcc/arm-none-eabi/10.3.1/../../../arm-none-eabi/lib/thumb/v7e-m+fp/hard/libc.a(lib_a-strtol.o)
_data                                             ./libopencm3/lib/libopencm3_stm32f4.a(vector.o)
_data_loadaddr                                    ./libopencm3/lib/libopencm3_stm32f4.a(vector.o)
_def_time_ms                                      ./.obj/cli_time.o
_dtoa_r                                           /usr/lib/gcc/arm-none-eabi/10.3.1/../../../arm-none-eabi/lib/thumb/v7e-m+fp/hard/libc.a(lib_a-dtoa.o)
                                                  /usr/lib/gcc/arm-none-eabi/10.3.1/../../../arm-none-eabi/lib/thumb/v7e-m+fp/hard/libc.a(lib_a-svfprintf.o)
_ebss                                             ./libopencm3/lib/libopencm3_stm32f4.a(vector.o)
_edata                                            ./libopencm3/lib/libopencm3_stm32f4.a(vector.o)
_exit                                             /usr/lib/gcc/arm-none-eabi/10.3.1/../../../arm-none-eabi/lib/thumb/v7e-m+fp/hard/libnosys.a(_exit.o)
                                                  /usr/lib/gcc/arm-none-eabi/10.3.1/../../../arm-none-eabi/lib/thumb/v7e-m+fp/hard/libc.a(lib_a-abort.o)
_fclose_r                                         /usr/lib/gcc/arm-none-eabi/10.3.1/../../../arm-none-eabi/lib/thumb/v7e-m+fp/hard/libc.a(lib_a-fclose.o)
                                                  /usr/lib/gcc/arm-none-eabi/10.3.1/../../../arm-none-eabi/lib/thumb/v7e-m+fp/hard/libc.a(lib_a-findfp.o)
_fflush_r                                         /usr/lib/gcc/arm-none-eabi/10.3.1/../../../arm-none-eabi/lib/thumb/v7e-m+fp/hard/libc.a(lib_a-fflush.o)
                                                  /usr/lib/gcc/arm-none-eabi/10.3.1/../../../arm-none-eabi/lib/thumb/v7e-m+fp/hard/libc.a(lib_a-wbuf.o)
                                                  /usr/lib/gcc/arm-none-eabi/10.3.1/../../../arm-none-eabi/lib/thumb/v7e-m+fp/hard/libc.a(lib_a-fvwrite.o)
                                                  /usr/lib/gcc/arm-none-eabi/10.3.1/../../../arm-none-eabi/lib/thumb/v7e-m+fp/hard/libc.a(lib_a-vfiprintf.o)
_findPartTermCmd                                  ./.obj/terminal.o
_findTermCmd                                      ./.obj/terminal.o
_fiprintf_r                                       /usr/lib/gcc/arm-none-eabi/10.3.1/../../../arm-none-eabi/lib/thumb/v7e-m+fp/hard/libc.a(lib_a-fiprintf.o)
_fputwc_r                                         /usr/lib/gcc/arm-none-eabi/10.3.1/../../../arm-none-eabi/lib/thumb/v7e-m+fp/hard/libc.a(lib_a-fputwc.o)
                                                  /usr/lib/gcc/arm-none-eabi/10.3.1/../../../arm-none-eabi/lib/thumb/v7e-m+fp/hard/libc.a(lib_a-vfiprintf.o)
_free_r                                           /usr/lib/gcc/arm-none-eabi/10.3.1/../../../arm-none-eabi/lib/thumb/v7e-m+fp/hard/libc.a(lib_a-freer.o)
                                                  /usr/lib/gcc/arm-none-eabi/10.3.1/../../../arm-none-eabi/lib/thumb/v7e-m+fp/hard/libc.a(lib_a-fclose.o)
                                                  /usr/lib/gcc/arm-none-eabi/10.3.1/../../../arm-none-eabi/lib/thumb/v7e-m+fp/hard/libc.a(lib_a-fvwrite.o)
                                                  /usr/lib/gcc/arm-none-eabi/10.3.1/../../../arm-none-eabi/lib/thumb/v7e-m+fp/hard/libc.a(lib_a-fflush.o)
                                                  /usr/lib/gcc/arm-none-eabi/10.3.1/../../../arm-none-eabi/lib/thumb/v7e-m+fp/hard/libc.a(lib_a-wsetup.o)
                                                  /usr/lib/gcc/arm-none-eabi/10.3.1/../../../arm-none-eabi/lib/thumb/v7e-m+fp/hard/libc.a(lib_a-reallocr.o)
                                                  /usr/lib/gcc/arm-none-eabi/10.3.1/../../../arm-none-eabi/lib/thumb/v7e-m+fp/hard/libc.a(lib_a-svfiprintf.o)
                                                  /usr/lib/gcc/arm-none-eabi/10.3.1/../../../arm-none-eabi/lib/thumb/v7e-m+fp/hard/libc.a(lib_a-reent.o)
                                                  /usr/lib/gcc/arm-none-eabi/10.3.1/../../../arm-none-eabi/lib/thumb/v7e-m+fp/hard/libc.a(lib_a-mallocr.o)
                                                  /usr/lib/gcc/arm-none-eabi/10.3.1/../../../arm-none-eabi/lib/thumb/v7e-m+fp/hard/libc.a(lib_a-malloc.o)
_fstat                                            /usr/lib/gcc/arm-none-eabi/10.3.1/../../../arm-none-eabi/lib/thumb/v7e-m+fp/hard/libnosys.a(fstat.o)
                                                  /usr/lib/gcc/arm-none-eabi/10.3.1/../../../arm-none-eabi/lib/thumb/v7e-m+fp/hard/libc.a(lib_a-fstatr.o)
_fstat_r                                          /usr/lib/gcc/arm-none-eabi/10.3.1/../../../arm-none-eabi/lib/thumb/v7e-m+fp/hard/libc.a(lib_a-fstatr.o)
                                                  /usr/lib/gcc/arm-none-eabi/10.3.1/../../../arm-none-eabi/lib/thumb/v7e-m+fp/hard/libc.a(lib_a-makebuf.o)
_fwalk                                            /usr/lib/gcc/arm-none-eabi/10.3.1/../../../arm-none-eabi/lib/thumb/v7e-m+fp/hard/libc.a(lib_a-fwalk.o)
                                                  /usr/lib/gcc/arm-none-eabi/10.3.1/../../../arm-none-eabi/lib/thumb/v7e-m+fp/hard/libc.a(lib_a-findfp.o)
_fwalk_reent                                      /usr/lib/gcc/arm-none-eabi/10.3.1/../../../arm-none-eabi/lib/thumb/v7e-m+fp/hard/libc.a(lib_a-fwalk.o)
                                                  /usr/lib/gcc/arm-none-eabi/10.3.1/../../../arm-none-eabi/lib/thumb/v7e-m+fp/hard/libc.a(lib_a-findfp.o)
                                                  /usr/lib/gcc/arm-none-eabi/10.3.1/../../../arm-none-eabi/lib/thumb/v7e-m+fp/hard/libc.a(lib_a-fflush.o)
_getCountSeparator                                ./.obj/cli_string.o
_getpid                                           /usr/lib/gcc/arm-none-eabi/10.3.1/../../../arm-none-eabi/lib/thumb/v7e-m+fp/hard/libnosys.a(getpid.o)
                                                  /usr/lib/gcc/arm-none-eabi/10.3.1/../../../arm-none-eabi/lib/thumb/v7e-m+fp/hard/libc.a(lib_a-signalr.o)
_getpid_r                                         /usr/lib/gcc/arm-none-eabi/10.3.1/../../../arm-none-eabi/lib/thumb/v7e-m+fp/hard/libc.a(lib_a-signalr.o)
                                                  /usr/lib/gcc/arm-none-eabi/10.3.1/../../../arm-none-eabi/lib/thumb/v7e-m+fp/hard/libc.a(lib_a-signal.o)
_global_impure_ptr                                /usr/lib/gcc/arm-none-eabi/10.3.1/../../../arm-none-eabi/lib/thumb/v7e-m+fp/hard/libc.a(lib_a-impure.o)
                                                  /usr/lib/gcc/arm-none-eabi/10.3.1/../../../arm-none-eabi/lib/thumb/v7e-m+fp/hard/libc.a(lib_a-findfp.o)
                                                  /usr/lib/gcc/arm-none-eabi/10.3.1/../../../arm-none-eabi/lib/thumb/v7e-m+fp/hard/libc.a(lib_a-fflush.o)
_impure_ptr                                       /usr/lib/gcc/arm-none-eabi/10.3.1/../../../arm-none-eabi/lib/thumb/v7e-m+fp/hard/libc.a(lib_a-impure.o)
                                                  /usr/lib/gcc/arm-none-eabi/10.3.1/../../../arm-none-eabi/lib/thumb/v7e-m+fp/hard/libc.a(lib_a-fclose.o)
                                                  /usr/lib/gcc/arm-none-eabi/10.3.1/../../../arm-none-eabi/lib/thumb/v7e-m+fp/hard/libc.a(lib_a-wcrtomb.o)
                                                  /usr/lib/gcc/arm-none-eabi/10.3.1/../../../arm-none-eabi/lib/thumb/v7e-m+fp/hard/libc.a(lib_a-wbuf.o)
                                                  /usr/lib/gcc/arm-none-eabi/10.3.1/../../../arm-none-eabi/lib/thumb/v7e-m+fp/hard/libc.a(lib_a-signal.o)
                                                  /usr/lib/gcc/arm-none-eabi/10.3.1/../../../arm-none-eabi/lib/thumb/v7e-m+fp/hard/libc.a(lib_a-fputwc.o)
                                                  /usr/lib/gcc/arm-none-eabi/10.3.1/../../../arm-none-eabi/lib/thumb/v7e-m+fp/hard/libc.a(lib_a-findfp.o)
                                                  /usr/lib/gcc/arm-none-eabi/10.3.1/../../../arm-none-eabi/lib/thumb/v7e-m+fp/hard/libc.a(lib_a-fflush.o)
                                                  /usr/lib/gcc/arm-none-eabi/10.3.1/../../../arm-none-eabi/lib/thumb/v7e-m+fp/hard/libc.a(lib_a-wsetup.o)
                                                  /usr/lib/gcc/arm-none-eabi/10.3.1/../../../arm-none-eabi/lib/thumb/v7e-m+fp/hard/libc.a(lib_a-vfiprintf.o)
                                                  /usr/lib/gcc/arm-none-eabi/10.3.1/../../../arm-none-eabi/lib/thumb/v7e-m+fp/hard/libc.a(lib_a-fiprintf.o)
                                                  /usr/lib/gcc/arm-none-eabi/10.3.1/../../../arm-none-eabi/lib/thumb/v7e-m+fp/hard/libc.a(lib_a-assert.o)
                                                  /usr/lib/gcc/arm-none-eabi/10.3.1/../../../arm-none-eabi/lib/thumb/v7e-m+fp/hard/libc.a(lib_a-reent.o)
                                                  /usr/lib/gcc/arm-none-eabi/10.3.1/../../../arm-none-eabi/lib/thumb/v7e-m+fp/hard/libc.a(lib_a-errno.o)
                                                  /usr/lib/gcc/arm-none-eabi/10.3.1/../../../arm-none-eabi/lib/thumb/v7e-m+fp/hard/libc.a(lib_a-strtol.o)
                                                  /usr/lib/gcc/arm-none-eabi/10.3.1/../../../arm-none-eabi/lib/thumb/v7e-m+fp/hard/libc.a(lib_a-sprintf.o)
                                                  /usr/lib/gcc/arm-none-eabi/10.3.1/../../../arm-none-eabi/lib/thumb/v7e-m+fp/hard/libc.a(lib_a-malloc.o)
_init_signal                                      /usr/lib/gcc/arm-none-eabi/10.3.1/../../../arm-none-eabi/lib/thumb/v7e-m+fp/hard/libc.a(lib_a-signal.o)
_init_signal_r                                    /usr/lib/gcc/arm-none-eabi/10.3.1/../../../arm-none-eabi/lib/thumb/v7e-m+fp/hard/libc.a(lib_a-signal.o)
_isatty                                           /usr/lib/gcc/arm-none-eabi/10.3.1/../../../arm-none-eabi/lib/thumb/v7e-m+fp/hard/libnosys.a(isatty.o)
                                                  /usr/lib/gcc/arm-none-eabi/10.3.1/../../../arm-none-eabi/lib/thumb/v7e-m+fp/hard/libc.a(lib_a-isattyr.o)
_isatty_r                                         /usr/lib/gcc/arm-none-eabi/10.3.1/../../../arm-none-eabi/lib/thumb/v7e-m+fp/hard/libc.a(lib_a-isattyr.o)
                                                  /usr/lib/gcc/arm-none-eabi/10.3.1/../../../arm-none-eabi/lib/thumb/v7e-m+fp/hard/libc.a(lib_a-makebuf.o)
_kill                                             /usr/lib/gcc/arm-none-eabi/10.3.1/../../../arm-none-eabi/lib/thumb/v7e-m+fp/hard/libnosys.a(kill.o)
                                                  /usr/lib/gcc/arm-none-eabi/10.3.1/../../../arm-none-eabi/lib/thumb/v7e-m+fp/hard/libc.a(lib_a-signalr.o)
_kill_r                                           /usr/lib/gcc/arm-none-eabi/10.3.1/../../../arm-none-eabi/lib/thumb/v7e-m+fp/hard/libc.a(lib_a-signalr.o)
                                                  /usr/lib/gcc/arm-none-eabi/10.3.1/../../../arm-none-eabi/lib/thumb/v7e-m+fp/hard/libc.a(lib_a-signal.o)
_localeconv_r                                     /usr/lib/gcc/arm-none-eabi/10.3.1/../../../arm-none-eabi/lib/thumb/v7e-m+fp/hard/libc.a(lib_a-localeconv.o)
                                                  /usr/lib/gcc/arm-none-eabi/10.3.1/../../../arm-none-eabi/lib/thumb/v7e-m+fp/hard/libc.a(lib_a-svfprintf.o)
_lseek                                            /usr/lib/gcc/arm-none-eabi/10.3.1/../../../arm-none-eabi/lib/thumb/v7e-m+fp/hard/libnosys.a(lseek.o)
                                                  /usr/lib/gcc/arm-none-eabi/10.3.1/../../../arm-none-eabi/lib/thumb/v7e-m+fp/hard/libc.a(lib_a-lseekr.o)
_lseek_r                                          /usr/lib/gcc/arm-none-eabi/10.3.1/../../../arm-none-eabi/lib/thumb/v7e-m+fp/hard/libc.a(lib_a-lseekr.o)
                                                  /usr/lib/gcc/arm-none-eabi/10.3.1/../../../arm-none-eabi/lib/thumb/v7e-m+fp/hard/libc.a(lib_a-stdio.o)
_malloc_r                                         /usr/lib/gcc/arm-none-eabi/10.3.1/../../../arm-none-eabi/lib/thumb/v7e-m+fp/hard/libc.a(lib_a-mallocr.o)
                                                  /usr/lib/gcc/arm-none-eabi/10.3.1/../../../arm-none-eabi/lib/thumb/v7e-m+fp/hard/libc.a(lib_a-signal.o)
                                                  /usr/lib/gcc/arm-none-eabi/10.3.1/../../../arm-none-eabi/lib/thumb/v7e-m+fp/hard/libc.a(lib_a-makebuf.o)
                                                  /usr/lib/gcc/arm-none-eabi/10.3.1/../../../arm-none-eabi/lib/thumb/v7e-m+fp/hard/libc.a(lib_a-fvwrite.o)
                                                  /usr/lib/gcc/arm-none-eabi/10.3.1/../../../arm-none-eabi/lib/thumb/v7e-m+fp/hard/libc.a(lib_a-findfp.o)
                                                  /usr/lib/gcc/arm-none-eabi/10.3.1/../../../arm-none-eabi/lib/thumb/v7e-m+fp/hard/libc.a(lib_a-reallocr.o)
                                                  /usr/lib/gcc/arm-none-eabi/10.3.1/../../../arm-none-eabi/lib/thumb/v7e-m+fp/hard/libc.a(lib_a-callocr.o)
                                                  /usr/lib/gcc/arm-none-eabi/10.3.1/../../../arm-none-eabi/lib/thumb/v7e-m+fp/hard/libc.a(lib_a-svfiprintf.o)
                                                  /usr/lib/gcc/arm-none-eabi/10.3.1/../../../arm-none-eabi/lib/thumb/v7e-m+fp/hard/libc.a(lib_a-svfprintf.o)
                                                  /usr/lib/gcc/arm-none-eabi/10.3.1/../../../arm-none-eabi/lib/thumb/v7e-m+fp/hard/libc.a(lib_a-malloc.o)
_malloc_trim_r                                    /usr/lib/gcc/arm-none-eabi/10.3.1/../../../arm-none-eabi/lib/thumb/v7e-m+fp/hard/libc.a(lib_a-freer.o)
_mbtowc_r                                         /usr/lib/gcc/arm-none-eabi/10.3.1/../../../arm-none-eabi/lib/thumb/v7e-m+fp/hard/libc.a(lib_a-mbtowc_r.o)
_mprec_log10                                      /usr/lib/gcc/arm-none-eabi/10.3.1/../../../arm-none-eabi/lib/thumb/v7e-m+fp/hard/libc.a(lib_a-mprec.o)
_raise_r                                          /usr/lib/gcc/arm-none-eabi/10.3.1/../../../arm-none-eabi/lib/thumb/v7e-m+fp/hard/libc.a(lib_a-signal.o)
_read                                             /usr/lib/gcc/arm-none-eabi/10.3.1/../../../arm-none-eabi/lib/thumb/v7e-m+fp/hard/libnosys.a(read.o)
                                                  /usr/lib/gcc/arm-none-eabi/10.3.1/../../../arm-none-eabi/lib/thumb/v7e-m+fp/hard/libc.a(lib_a-readr.o)
_read_r                                           /usr/lib/gcc/arm-none-eabi/10.3.1/../../../arm-none-eabi/lib/thumb/v7e-m+fp/hard/libc.a(lib_a-readr.o)
                                                  /usr/lib/gcc/arm-none-eabi/10.3.1/../../../arm-none-eabi/lib/thumb/v7e-m+fp/hard/libc.a(lib_a-stdio.o)
_realloc_r                                        /usr/lib/gcc/arm-none-eabi/10.3.1/../../../arm-none-eabi/lib/thumb/v7e-m+fp/hard/libc.a(lib_a-reallocr.o)
                                                  /usr/lib/gcc/arm-none-eabi/10.3.1/../../../arm-none-eabi/lib/thumb/v7e-m+fp/hard/libc.a(lib_a-fvwrite.o)
                                                  /usr/lib/gcc/arm-none-eabi/10.3.1/../../../arm-none-eabi/lib/thumb/v7e-m+fp/hard/libc.a(lib_a-svfiprintf.o)
_reclaim_reent                                    /usr/lib/gcc/arm-none-eabi/10.3.1/../../../arm-none-eabi/lib/thumb/v7e-m+fp/hard/libc.a(lib_a-reent.o)
_reset_fcn                                        ./.obj/main.o
                                                  ./.obj/terminal.o
_sbrk                                             /usr/lib/gcc/arm-none-eabi/10.3.1/../../../arm-none-eabi/lib/thumb/v7e-m+fp/hard/libnosys.a(sbrk.o)
                                                  /usr/lib/gcc/arm-none-eabi/10.3.1/../../../arm-none-eabi/lib/thumb/v7e-m+fp/hard/libc.a(lib_a-sbrkr.o)
_sbrk_r                                           /usr/lib/gcc/arm-none-eabi/10.3.1/../../../arm-none-eabi/lib/thumb/v7e-m+fp/hard/libc.a(lib_a-sbrkr.o)
                                                  /usr/lib/gcc/arm-none-eabi/10.3.1/../../../arm-none-eabi/lib/thumb/v7e-m+fp/hard/libc.a(lib_a-freer.o)
                                                  /usr/lib/gcc/arm-none-eabi/10.3.1/../../../arm-none-eabi/lib/thumb/v7e-m+fp/hard/libc.a(lib_a-mallocr.o)
_setlocale_r                                      /usr/lib/gcc/arm-none-eabi/10.3.1/../../../arm-none-eabi/lib/thumb/v7e-m+fp/hard/libc.a(lib_a-locale.o)
_signal_r                                         /usr/lib/gcc/arm-none-eabi/10.3.1/../../../arm-none-eabi/lib/thumb/v7e-m+fp/hard/libc.a(lib_a-signal.o)
_sprintf_r                                        /usr/lib/gcc/arm-none-eabi/10.3.1/../../../arm-none-eabi/lib/thumb/v7e-m+fp/hard/libc.a(lib_a-sprintf.o)
_stack                                            ./libopencm3/lib/libopencm3_stm32f4.a(vector.o)
_strPartCmp                                       ./.obj/cli_string.o
                                                  ./.obj/terminal.o
_strcmp                                           ./.obj/cli_string.o
                                                  ./.obj/terminal.o
                                                  ./.obj/cli_log.o
_strcpy                                           ./.obj/cli_string.o
_strlen                                           ./.obj/cli_string.o
                                                  ./.obj/terminal.o
                                                  ./.obj/cli_input.o
_strtol_r                                         /usr/lib/gcc/arm-none-eabi/10.3.1/../../../arm-none-eabi/lib/thumb/v7e-m+fp/hard/libc.a(lib_a-strtol.o)
_svfiprintf_r                                     /usr/lib/gcc/arm-none-eabi/10.3.1/../../../arm-none-eabi/lib/thumb/v7e-m+fp/hard/libc.a(lib_a-svfiprintf.o)
_svfprintf_r                                      /usr/lib/gcc/arm-none-eabi/10.3.1/../../../arm-none-eabi/lib/thumb/v7e-m+fp/hard/libc.a(lib_a-svfprintf.o)
                                                  /usr/lib/gcc/arm-none-eabi/10.3.1/../../../arm-none-eabi/lib/thumb/v7e-m+fp/hard/libc.a(lib_a-sprintf.o)
_trim                                             ./.obj/cli_string.o
_vfiprintf_r                                      /usr/lib/gcc/arm-none-eabi/10.3.1/../../../arm-none-eabi/lib/thumb/v7e-m+fp/hard/libc.a(lib_a-vfiprintf.o)
                                                  /usr/lib/gcc/arm-none-eabi/10.3.1/../../../arm-none-eabi/lib/thumb/v7e-m+fp/hard/libc.a(lib_a-fiprintf.o)
_wcrtomb_r                                        /usr/lib/gcc/arm-none-eabi/10.3.1/../../../arm-none-eabi/lib/thumb/v7e-m+fp/hard/libc.a(lib_a-wcrtomb.o)
                                                  /usr/lib/gcc/arm-none-eabi/10.3.1/../../../arm-none-eabi/lib/thumb/v7e-m+fp/hard/libc.a(lib_a-fputwc.o)
_wctomb_r                                         /usr/lib/gcc/arm-none-eabi/10.3.1/../../../arm-none-eabi/lib/thumb/v7e-m+fp/hard/libc.a(lib_a-wctomb_r.o)
_write                                            /usr/lib/gcc/arm-none-eabi/10.3.1/../../../arm-none-eabi/lib/thumb/v7e-m+fp/hard/libnosys.a(write.o)
                                                  /usr/lib/gcc/arm-none-eabi/10.3.1/../../../arm-none-eabi/lib/thumb/v7e-m+fp/hard/libc.a(lib_a-writer.o)
_write_r                                          /usr/lib/gcc/arm-none-eabi/10.3.1/../../../arm-none-eabi/lib/thumb/v7e-m+fp/hard/libc.a(lib_a-writer.o)
                                                  /usr/lib/gcc/arm-none-eabi/10.3.1/../../../arm-none-eabi/lib/thumb/v7e-m+fp/hard/libc.a(lib_a-stdio.o)
abort                                             /usr/lib/gcc/arm-none-eabi/10.3.1/../../../arm-none-eabi/lib/thumb/v7e-m+fp/hard/libc.a(lib_a-abort.o)
                                                  /usr/lib/gcc/arm-none-eabi/10.3.1/../../../arm-none-eabi/lib/thumb/v7e-m+fp/hard/libc.a(lib_a-assert.o)
adc_isr                                           ./libopencm3/lib/libopencm3_stm32f4.a(vector.o)
arr_down                                          ./.obj/cli_input.o
arr_esc                                           ./.obj/cli_input.o
arr_left                                          ./.obj/cli_input.o
arr_right                                         ./.obj/cli_input.o
arr_up                                            ./.obj/cli_input.o
blocking_handler                                  ./libopencm3/lib/libopencm3_stm32f4.a(vector.o)
bus_fault_handler                                 ./libopencm3/lib/libopencm3_stm32f4.a(vector.o)
can1_rx0_isr                                      ./libopencm3/lib/libopencm3_stm32f4.a(vector.o)
can1_rx1_isr                                      ./libopencm3/lib/libopencm3_stm32f4.a(vector.o)
can1_sce_isr                                      ./libopencm3/lib/libopencm3_stm32f4.a(vector.o)
can1_tx_isr                                       ./libopencm3/lib/libopencm3_stm32f4.a(vector.o)
can2_rx0_isr                                      ./libopencm3/lib/libopencm3_stm32f4.a(vector.o)
can2_rx1_isr                                      ./libopencm3/lib/libopencm3_stm32f4.a(vector.o)
can2_sce_isr                                      ./libopencm3/lib/libopencm3_stm32f4.a(vector.o)
can2_tx_isr                                       ./libopencm3/lib/libopencm3_stm32f4.a(vector.o)
cleanup_glue                                      /usr/lib/gcc/arm-none-eabi/10.3.1/../../../arm-none-eabi/lib/thumb/v7e-m+fp/hard/libc.a(lib_a-reent.o)
cryp_isr                                          ./libopencm3/lib/libopencm3_stm32f4.a(vector.o)
dbgbuffer                                         ./.obj/main.o
                                                  ./.obj/my_test_commands.o
                                                  ./.obj/terminal.o
                                                  ./.obj/cli_input.o
dcmi_isr                                          ./libopencm3/lib/libopencm3_stm32f4.a(vector.o)
debug_monitor_handler                             ./libopencm3/lib/libopencm3_stm32f4.a(vector.o)
del                                               ./.obj/cli_input.o
dma1_stream0_isr                                  ./libopencm3/lib/libopencm3_stm32f4.a(vector.o)
dma1_stream1_isr                                  ./libopencm3/lib/libopencm3_stm32f4.a(vector.o)
dma1_stream2_isr                                  ./libopencm3/lib/libopencm3_stm32f4.a(vector.o)
dma1_stream3_isr                                  ./libopencm3/lib/libopencm3_stm32f4.a(vector.o)
dma1_stream4_isr                                  ./libopencm3/lib/libopencm3_stm32f4.a(vector.o)
dma1_stream5_isr                                  ./libopencm3/lib/libopencm3_stm32f4.a(vector.o)
dma1_stream6_isr                                  ./libopencm3/lib/libopencm3_stm32f4.a(vector.o)
dma1_stream7_isr                                  ./libopencm3/lib/libopencm3_stm32f4.a(vector.o)
dma2_stream0_isr                                  ./libopencm3/lib/libopencm3_stm32f4.a(vector.o)
dma2_stream1_isr                                  ./libopencm3/lib/libopencm3_stm32f4.a(vector.o)
dma2_stream2_isr                                  ./libopencm3/lib/libopencm3_stm32f4.a(vector.o)
dma2_stream3_isr                                  ./libopencm3/lib/libopencm3_stm32f4.a(vector.o)
dma2_stream4_isr                                  ./libopencm3/lib/libopencm3_stm32f4.a(vector.o)
dma2_stream5_isr                                  ./libopencm3/lib/libopencm3_stm32f4.a(vector.o)
dma2_stream6_isr                                  ./libopencm3/lib/libopencm3_stm32f4.a(vector.o)
dma2_stream7_isr                                  ./libopencm3/lib/libopencm3_stm32f4.a(vector.o)
dma2d_isr                                         ./libopencm3/lib/libopencm3_stm32f4.a(vector.o)
end                                               ./.obj/cli_input.o
                                                  /usr/lib/gcc/arm-none-eabi/10.3.1/../../../arm-none-eabi/lib/thumb/v7e-m+fp/hard/libnosys.a(sbrk.o)
errno                                             /usr/lib/gcc/arm-none-eabi/10.3.1/../../../arm-none-eabi/lib/thumb/v7e-m+fp/hard/libc.a(lib_a-reent.o)
                                                  /usr/lib/gcc/arm-none-eabi/10.3.1/../../../arm-none-eabi/lib/thumb/v7e-m+fp/hard/libnosys.a(write.o)
                                                  /usr/lib/gcc/arm-none-eabi/10.3.1/../../../arm-none-eabi/lib/thumb/v7e-m+fp/hard/libnosys.a(read.o)
                                                  /usr/lib/gcc/arm-none-eabi/10.3.1/../../../arm-none-eabi/lib/thumb/v7e-m+fp/hard/libnosys.a(lseek.o)
                                                  /usr/lib/gcc/arm-none-eabi/10.3.1/../../../arm-none-eabi/lib/thumb/v7e-m+fp/hard/libnosys.a(kill.o)
                                                  /usr/lib/gcc/arm-none-eabi/10.3.1/../../../arm-none-eabi/lib/thumb/v7e-m+fp/hard/libnosys.a(isatty.o)
                                                  /usr/lib/gcc/arm-none-eabi/10.3.1/../../../arm-none-eabi/lib/thumb/v7e-m+fp/hard/libnosys.a(getpid.o)
                                                  /usr/lib/gcc/arm-none-eabi/10.3.1/../../../arm-none-eabi/lib/thumb/v7e-m+fp/hard/libnosys.a(fstat.o)
                                                  /usr/lib/gcc/arm-none-eabi/10.3.1/../../../arm-none-eabi/lib/thumb/v7e-m+fp/hard/libnosys.a(close.o)
                                                  /usr/lib/gcc/arm-none-eabi/10.3.1/../../../arm-none-eabi/lib/thumb/v7e-m+fp/hard/libc.a(lib_a-readr.o)
                                                  /usr/lib/gcc/arm-none-eabi/10.3.1/../../../arm-none-eabi/lib/thumb/v7e-m+fp/hard/libc.a(lib_a-lseekr.o)
                                                  /usr/lib/gcc/arm-none-eabi/10.3.1/../../../arm-none-eabi/lib/thumb/v7e-m+fp/hard/libc.a(lib_a-isattyr.o)
                                                  /usr/lib/gcc/arm-none-eabi/10.3.1/../../../arm-none-eabi/lib/thumb/v7e-m+fp/hard/libc.a(lib_a-fstatr.o)
                                                  /usr/lib/gcc/arm-none-eabi/10.3.1/../../../arm-none-eabi/lib/thumb/v7e-m+fp/hard/libc.a(lib_a-closer.o)
                                                  /usr/lib/gcc/arm-none-eabi/10.3.1/../../../arm-none-eabi/lib/thumb/v7e-m+fp/hard/libc.a(lib_a-writer.o)
                                                  /usr/lib/gcc/arm-none-eabi/10.3.1/../../../arm-none-eabi/lib/thumb/v7e-m+fp/hard/libc.a(lib_a-signalr.o)
                                                  /usr/lib/gcc/arm-none-eabi/10.3.1/../../../arm-none-eabi/lib/thumb/v7e-m+fp/hard/libc.a(lib_a-sbrkr.o)
eth_isr                                           ./libopencm3/lib/libopencm3_stm32f4.a(vector.o)
eth_wkup_isr                                      ./libopencm3/lib/libopencm3_stm32f4.a(vector.o)
exti0_isr                                         ./libopencm3/lib/libopencm3_stm32f4.a(vector.o)
exti15_10_isr                                     ./libopencm3/lib/libopencm3_stm32f4.a(vector.o)
exti1_isr                                         ./libopencm3/lib/libopencm3_stm32f4.a(vector.o)
exti2_isr                                         ./libopencm3/lib/libopencm3_stm32f4.a(vector.o)
exti3_isr                                         ./libopencm3/lib/libopencm3_stm32f4.a(vector.o)
exti4_isr                                         ./libopencm3/lib/libopencm3_stm32f4.a(vector.o)
exti9_5_isr                                       ./libopencm3/lib/libopencm3_stm32f4.a(vector.o)
fclose                                            /usr/lib/gcc/arm-none-eabi/10.3.1/../../../arm-none-eabi/lib/thumb/v7e-m+fp/hard/libc.a(lib_a-fclose.o)
fflush                                            /usr/lib/gcc/arm-none-eabi/10.3.1/../../../arm-none-eabi/lib/thumb/v7e-m+fp/hard/libc.a(lib_a-fflush.o)
fiprintf                                          /usr/lib/gcc/arm-none-eabi/10.3.1/../../../arm-none-eabi/lib/thumb/v7e-m+fp/hard/libc.a(lib_a-fiprintf.o)
                                                  /usr/lib/gcc/arm-none-eabi/10.3.1/../../../arm-none-eabi/lib/thumb/v7e-m+fp/hard/libc.a(lib_a-assert.o)
flash_dcache_disable                              ./libopencm3/lib/libopencm3_stm32f4.a(flash_common_idcache.o)
                                                  ./libopencm3/lib/libopencm3_stm32f4.a(rcc.o)
flash_dcache_enable                               ./libopencm3/lib/libopencm3_stm32f4.a(flash_common_idcache.o)
                                                  ./libopencm3/lib/libopencm3_stm32f4.a(rcc.o)
flash_dcache_reset                                ./libopencm3/lib/libopencm3_stm32f4.a(flash_common_idcache.o)
flash_icache_disable                              ./libopencm3/lib/libopencm3_stm32f4.a(flash_common_idcache.o)
                                                  ./libopencm3/lib/libopencm3_stm32f4.a(rcc.o)
flash_icache_enable                               ./libopencm3/lib/libopencm3_stm32f4.a(flash_common_idcache.o)
                                                  ./libopencm3/lib/libopencm3_stm32f4.a(rcc.o)
flash_icache_reset                                ./libopencm3/lib/libopencm3_stm32f4.a(flash_common_idcache.o)
flash_isr                                         ./libopencm3/lib/libopencm3_stm32f4.a(vector.o)
flash_prefetch_disable                            ./libopencm3/lib/libopencm3_stm32f4.a(flash_common_all.o)
flash_prefetch_enable                             ./libopencm3/lib/libopencm3_stm32f4.a(flash_common_all.o)
flash_set_ws                                      ./libopencm3/lib/libopencm3_stm32f4.a(flash_common_all.o)
                                                  ./libopencm3/lib/libopencm3_stm32f4.a(rcc.o)
flash_unlock_option_bytes                         ./libopencm3/lib/libopencm3_stm32f4.a(flash_common_all.o)
fpu_isr                                           ./libopencm3/lib/libopencm3_stm32f4.a(vector.o)
fputwc                                            /usr/lib/gcc/arm-none-eabi/10.3.1/../../../arm-none-eabi/lib/thumb/v7e-m+fp/hard/libc.a(lib_a-fputwc.o)
free                                              /usr/lib/gcc/arm-none-eabi/10.3.1/../../../arm-none-eabi/lib/thumb/v7e-m+fp/hard/libc.a(lib_a-malloc.o)
                                                  ./.obj/cli_queue.o
fsmc_isr                                          ./libopencm3/lib/libopencm3_stm32f4.a(vector.o)
gpio_mode_setup                                   ./libopencm3/lib/libopencm3_stm32f4.a(gpio_common_f0234.o)
                                                  ./.obj/main.o
gpio_set_af                                       ./libopencm3/lib/libopencm3_stm32f4.a(gpio_common_f0234.o)
                                                  ./.obj/main.o
gpio_set_output_options                           ./libopencm3/lib/libopencm3_stm32f4.a(gpio_common_f0234.o)
hard_fault_handler                                ./libopencm3/lib/libopencm3_stm32f4.a(vector.o)
hash_rng_isr                                      ./libopencm3/lib/libopencm3_stm32f4.a(vector.o)
home                                              ./.obj/cli_input.o
i2c1_er_isr                                       ./libopencm3/lib/libopencm3_stm32f4.a(vector.o)
i2c1_ev_isr                                       ./libopencm3/lib/libopencm3_stm32f4.a(vector.o)
i2c2_er_isr                                       ./libopencm3/lib/libopencm3_stm32f4.a(vector.o)
i2c2_ev_isr                                       ./libopencm3/lib/libopencm3_stm32f4.a(vector.o)
i2c3_er_isr                                       ./libopencm3/lib/libopencm3_stm32f4.a(vector.o)
i2c3_ev_isr                                       ./libopencm3/lib/libopencm3_stm32f4.a(vector.o)
lcd_tft_err_isr                                   ./libopencm3/lib/libopencm3_stm32f4.a(vector.o)
lcd_tft_isr                                       ./libopencm3/lib/libopencm3_stm32f4.a(vector.o)
localeconv                                        /usr/lib/gcc/arm-none-eabi/10.3.1/../../../arm-none-eabi/lib/thumb/v7e-m+fp/hard/libc.a(lib_a-localeconv.o)
main                                              ./.obj/main.o
                                                  ./libopencm3/lib/libopencm3_stm32f4.a(vector.o)
malloc                                            /usr/lib/gcc/arm-none-eabi/10.3.1/../../../arm-none-eabi/lib/thumb/v7e-m+fp/hard/libc.a(lib_a-malloc.o)
                                                  ./.obj/terminal.o
                                                  ./.obj/cli_string.o
                                                  ./.obj/cli_queue.o
mem_manage_handler                                ./libopencm3/lib/libopencm3_stm32f4.a(vector.o)
memchr                                            /usr/lib/gcc/arm-none-eabi/10.3.1/../../../arm-none-eabi/lib/thumb/v7e-m+fp/hard/libc.a(lib_a-memchr.o)
                                                  /usr/lib/gcc/arm-none-eabi/10.3.1/../../../arm-none-eabi/lib/thumb/v7e-m+fp/hard/libc.a(lib_a-fvwrite.o)
                                                  /usr/lib/gcc/arm-none-eabi/10.3.1/../../../arm-none-eabi/lib/thumb/v7e-m+fp/hard/libc.a(lib_a-vfiprintf.o)
                                                  /usr/lib/gcc/arm-none-eabi/10.3.1/../../../arm-none-eabi/lib/thumb/v7e-m+fp/hard/libc.a(lib_a-svfiprintf.o)
                                                  /usr/lib/gcc/arm-none-eabi/10.3.1/../../../arm-none-eabi/lib/thumb/v7e-m+fp/hard/libc.a(lib_a-svfprintf.o)
memcmp                                            /usr/lib/gcc/arm-none-eabi/10.3.1/../../../arm-none-eabi/lib/thumb/v7e-m+fp/hard/libc.a(lib_a-memcmp.o)
                                                  ./.obj/cli_queue.o
memcpy                                            /usr/lib/gcc/arm-none-eabi/10.3.1/../../../arm-none-eabi/lib/thumb/v7e-m+fp/hard/libc.a(lib_a-memcpy.o)
                                                  /usr/lib/gcc/arm-none-eabi/10.3.1/../../../arm-none-eabi/lib/thumb/v7e-m+fp/hard/libc.a(lib_a-fvwrite.o)
                                                  /usr/lib/gcc/arm-none-eabi/10.3.1/../../../arm-none-eabi/lib/thumb/v7e-m+fp/hard/libc.a(lib_a-svfiprintf.o)
                                                  /usr/lib/gcc/arm-none-eabi/10.3.1/../../../arm-none-eabi/lib/thumb/v7e-m+fp/hard/libc.a(lib_a-mprec.o)
                                                  /usr/lib/gcc/arm-none-eabi/10.3.1/../../../arm-none-eabi/lib/thumb/v7e-m+fp/hard/libc.a(lib_a-dtoa.o)
                                                  ./.obj/cli_log.o
                                                  ./.obj/cli_input.o
                                                  ./.obj/cli_queue.o
memmove                                           /usr/lib/gcc/arm-none-eabi/10.3.1/../../../arm-none-eabi/lib/thumb/v7e-m+fp/hard/libc.a(lib_a-memmove.o)
                                                  /usr/lib/gcc/arm-none-eabi/10.3.1/../../../arm-none-eabi/lib/thumb/v7e-m+fp/hard/libc.a(lib_a-fvwrite.o)
                                                  /usr/lib/gcc/arm-none-eabi/10.3.1/../../../arm-none-eabi/lib/thumb/v7e-m+fp/hard/libc.a(lib_a-reallocr.o)
                                                  /usr/lib/gcc/arm-none-eabi/10.3.1/../../../arm-none-eabi/lib/thumb/v7e-m+fp/hard/libc.a(lib_a-svfiprintf.o)
memset                                            /usr/lib/gcc/arm-none-eabi/10.3.1/../../../arm-none-eabi/lib/thumb/v7e-m+fp/hard/libc.a(lib_a-memset.o)
                                                  /usr/lib/gcc/arm-none-eabi/10.3.1/../../../arm-none-eabi/lib/thumb/v7e-m+fp/hard/libc.a(lib_a-findfp.o)
                                                  /usr/lib/gcc/arm-none-eabi/10.3.1/../../../arm-none-eabi/lib/thumb/v7e-m+fp/hard/libc.a(lib_a-callocr.o)
micros                                            ./.obj/Time.o
nmi_handler                                       ./libopencm3/lib/libopencm3_stm32f4.a(vector.o)
null_handler                                      ./libopencm3/lib/libopencm3_stm32f4.a(vector.o)
nvic_clear_pending_irq                            ./libopencm3/lib/libopencm3_stm32f4.a(nvic.o)
nvic_disable_irq                                  ./libopencm3/lib/libopencm3_stm32f4.a(nvic.o)
nvic_enable_irq                                   ./libopencm3/lib/libopencm3_stm32f4.a(nvic.o)
                                                  ./.obj/Time.o
                                                  ./.obj/main.o
nvic_generate_software_interrupt                  ./libopencm3/lib/libopencm3_stm32f4.a(nvic.o)
nvic_get_active_irq                               ./libopencm3/lib/libopencm3_stm32f4.a(nvic.o)
nvic_get_irq_enabled                              ./libopencm3/lib/libopencm3_stm32f4.a(nvic.o)
nvic_get_pending_irq                              ./libopencm3/lib/libopencm3_stm32f4.a(nvic.o)
nvic_set_pending_irq                              ./libopencm3/lib/libopencm3_stm32f4.a(nvic.o)
nvic_set_priority                                 ./libopencm3/lib/libopencm3_stm32f4.a(nvic.o)
                                                  ./.obj/Time.o
                                                  ./.obj/main.o
nvic_wwdg_isr                                     ./libopencm3/lib/libopencm3_stm32f4.a(vector.o)
otg_fs_isr                                        ./libopencm3/lib/libopencm3_stm32f4.a(vector.o)
otg_hs_ep1_in_isr                                 ./libopencm3/lib/libopencm3_stm32f4.a(vector.o)
otg_hs_ep1_out_isr                                ./libopencm3/lib/libopencm3_stm32f4.a(vector.o)
otg_hs_isr                                        ./libopencm3/lib/libopencm3_stm32f4.a(vector.o)
otg_hs_wkup_isr                                   ./libopencm3/lib/libopencm3_stm32f4.a(vector.o)
pend_sv_handler                                   ./libopencm3/lib/libopencm3_stm32f4.a(vector.o)
pvd_isr                                           ./libopencm3/lib/libopencm3_stm32f4.a(vector.o)
pwr_set_vos_scale                                 ./libopencm3/lib/libopencm3_stm32f4.a(pwr.o)
                                                  ./libopencm3/lib/libopencm3_stm32f4.a(rcc.o)
raise                                             /usr/lib/gcc/arm-none-eabi/10.3.1/../../../arm-none-eabi/lib/thumb/v7e-m+fp/hard/libc.a(lib_a-signal.o)
                                                  /usr/lib/gcc/arm-none-eabi/10.3.1/../../../arm-none-eabi/lib/thumb/v7e-m+fp/hard/libc.a(lib_a-abort.o)
rcc_ahb_frequency                                 ./libopencm3/lib/libopencm3_stm32f4.a(rcc.o)
rcc_apb1_frequency                                ./libopencm3/lib/libopencm3_stm32f4.a(rcc.o)
rcc_apb2_frequency                                ./libopencm3/lib/libopencm3_stm32f4.a(rcc.o)
rcc_clock_setup_hse_3v3                           ./libopencm3/lib/libopencm3_stm32f4.a(rcc.o)
rcc_clock_setup_pll                               ./libopencm3/lib/libopencm3_stm32f4.a(rcc.o)
rcc_css_disable                                   ./libopencm3/lib/libopencm3_stm32f4.a(rcc.o)
rcc_css_enable                                    ./libopencm3/lib/libopencm3_stm32f4.a(rcc.o)
rcc_css_int_clear                                 ./libopencm3/lib/libopencm3_stm32f4.a(rcc.o)
rcc_css_int_flag                                  ./libopencm3/lib/libopencm3_stm32f4.a(rcc.o)
rcc_get_div_from_hpre                             ./libopencm3/lib/libopencm3_stm32f4.a(rcc_common_all.o)
rcc_get_i2c_clk_freq                              ./libopencm3/lib/libopencm3_stm32f4.a(rcc.o)
rcc_get_spi_clk_freq                              ./libopencm3/lib/libopencm3_stm32f4.a(rcc.o)
rcc_get_timer_clk_freq                            ./libopencm3/lib/libopencm3_stm32f4.a(rcc.o)
rcc_get_usart_clk_freq                            ./libopencm3/lib/libopencm3_stm32f4.a(rcc.o)
                                                  ./libopencm3/lib/libopencm3_stm32f4.a(usart_common_all.o)
rcc_hse_12mhz_3v3                                 ./libopencm3/lib/libopencm3_stm32f4.a(rcc.o)
rcc_hse_16mhz_3v3                                 ./libopencm3/lib/libopencm3_stm32f4.a(rcc.o)
rcc_hse_25mhz_3v3                                 ./libopencm3/lib/libopencm3_stm32f4.a(rcc.o)
rcc_hse_8mhz_3v3                                  ./libopencm3/lib/libopencm3_stm32f4.a(rcc.o)
rcc_hsi_configs                                   ./libopencm3/lib/libopencm3_stm32f4.a(rcc.o)
rcc_is_osc_ready                                  ./libopencm3/lib/libopencm3_stm32f4.a(rcc.o)
                                                  ./.obj/main.o
rcc_isr                                           ./libopencm3/lib/libopencm3_stm32f4.a(vector.o)
rcc_osc_bypass_disable                            ./libopencm3/lib/libopencm3_stm32f4.a(rcc_common_all.o)
rcc_osc_bypass_enable                             ./libopencm3/lib/libopencm3_stm32f4.a(rcc_common_all.o)
rcc_osc_off                                       ./libopencm3/lib/libopencm3_stm32f4.a(rcc.o)
rcc_osc_on                                        ./libopencm3/lib/libopencm3_stm32f4.a(rcc.o)
                                                  ./.obj/main.o
rcc_osc_ready_int_clear                           ./libopencm3/lib/libopencm3_stm32f4.a(rcc.o)
rcc_osc_ready_int_disable                         ./libopencm3/lib/libopencm3_stm32f4.a(rcc.o)
rcc_osc_ready_int_enable                          ./libopencm3/lib/libopencm3_stm32f4.a(rcc.o)
rcc_osc_ready_int_flag                            ./libopencm3/lib/libopencm3_stm32f4.a(rcc.o)
rcc_periph_clock_disable                          ./libopencm3/lib/libopencm3_stm32f4.a(rcc_common_all.o)
rcc_periph_clock_enable                           ./libopencm3/lib/libopencm3_stm32f4.a(rcc_common_all.o)
                                                  ./libopencm3/lib/libopencm3_stm32f4.a(rcc.o)
                                                  ./.obj/Time.o
                                                  ./.obj/main.o
rcc_periph_reset_hold                             ./libopencm3/lib/libopencm3_stm32f4.a(rcc_common_all.o)
rcc_periph_reset_pulse                            ./libopencm3/lib/libopencm3_stm32f4.a(rcc_common_all.o)
                                                  ./.obj/Time.o
rcc_periph_reset_release                          ./libopencm3/lib/libopencm3_stm32f4.a(rcc_common_all.o)
rcc_peripheral_clear_reset                        ./libopencm3/lib/libopencm3_stm32f4.a(rcc_common_all.o)
rcc_peripheral_disable_clock                      ./libopencm3/lib/libopencm3_stm32f4.a(rcc_common_all.o)
rcc_peripheral_enable_clock                       ./libopencm3/lib/libopencm3_stm32f4.a(rcc_common_all.o)
rcc_peripheral_reset                              ./libopencm3/lib/libopencm3_stm32f4.a(rcc_common_all.o)
rcc_plli2s_config                                 ./libopencm3/lib/libopencm3_stm32f4.a(rcc.o)
rcc_pllsai_config                                 ./libopencm3/lib/libopencm3_stm32f4.a(rcc.o)
rcc_pllsai_postscalers                            ./libopencm3/lib/libopencm3_stm32f4.a(rcc.o)
rcc_set_hpre                                      ./libopencm3/lib/libopencm3_stm32f4.a(rcc.o)
rcc_set_main_pll_hse                              ./libopencm3/lib/libopencm3_stm32f4.a(rcc.o)
rcc_set_main_pll_hsi                              ./libopencm3/lib/libopencm3_stm32f4.a(rcc.o)
rcc_set_mco                                       ./libopencm3/lib/libopencm3_stm32f4.a(rcc_common_all.o)
rcc_set_pll_source                                ./libopencm3/lib/libopencm3_stm32f4.a(rcc.o)
rcc_set_ppre1                                     ./libopencm3/lib/libopencm3_stm32f4.a(rcc.o)
rcc_set_ppre2                                     ./libopencm3/lib/libopencm3_stm32f4.a(rcc.o)
rcc_set_rtcpre                                    ./libopencm3/lib/libopencm3_stm32f4.a(rcc.o)
rcc_set_sysclk_source                             ./libopencm3/lib/libopencm3_stm32f4.a(rcc.o)
                                                  ./.obj/main.o
rcc_system_clock_source                           ./libopencm3/lib/libopencm3_stm32f4.a(rcc.o)
rcc_wait_for_osc_ready                            ./libopencm3/lib/libopencm3_stm32f4.a(rcc.o)
rcc_wait_for_sysclk_status                        ./libopencm3/lib/libopencm3_stm32f4.a(rcc.o)
                                                  ./.obj/main.o
reset_handler                                     ./libopencm3/lib/libopencm3_stm32f4.a(vector.o)
rtc_alarm_isr                                     ./libopencm3/lib/libopencm3_stm32f4.a(vector.o)
rtc_wkup_isr                                      ./libopencm3/lib/libopencm3_stm32f4.a(vector.o)
sai1_isr                                          ./libopencm3/lib/libopencm3_stm32f4.a(vector.o)
scb_reset_core                                    ./libopencm3/lib/libopencm3_stm32f4.a(scb.o)
scb_reset_system                                  ./libopencm3/lib/libopencm3_stm32f4.a(scb.o)
                                                  ./.obj/main.o
scb_set_priority_grouping                         ./libopencm3/lib/libopencm3_stm32f4.a(scb.o)
sdio_isr                                          ./libopencm3/lib/libopencm3_stm32f4.a(vector.o)
setlocale                                         /usr/lib/gcc/arm-none-eabi/10.3.1/../../../arm-none-eabi/lib/thumb/v7e-m+fp/hard/libc.a(lib_a-locale.o)
signal                                            /usr/lib/gcc/arm-none-eabi/10.3.1/../../../arm-none-eabi/lib/thumb/v7e-m+fp/hard/libc.a(lib_a-signal.o)
spi1_isr                                          ./libopencm3/lib/libopencm3_stm32f4.a(vector.o)
spi2_isr                                          ./libopencm3/lib/libopencm3_stm32f4.a(vector.o)
spi3_isr                                          ./libopencm3/lib/libopencm3_stm32f4.a(vector.o)
spi4_isr                                          ./libopencm3/lib/libopencm3_stm32f4.a(vector.o)
spi5_isr                                          ./libopencm3/lib/libopencm3_stm32f4.a(vector.o)
spi6_isr                                          ./libopencm3/lib/libopencm3_stm32f4.a(vector.o)
split                                             ./.obj/cli_string.o
                                                  ./.obj/terminal.o
sprintf                                           /usr/lib/gcc/arm-none-eabi/10.3.1/../../../arm-none-eabi/lib/thumb/v7e-m+fp/hard/libc.a(lib_a-sprintf.o)
                                                  ./.obj/my_test_commands.o
                                                  ./.obj/terminal.o
strcmp                                            /usr/lib/gcc/arm-none-eabi/10.3.1/../../../arm-none-eabi/lib/thumb/v7e-m+fp/hard/libc.a(lib_a-strcmp.o)
                                                  /usr/lib/gcc/arm-none-eabi/10.3.1/../../../arm-none-eabi/lib/thumb/v7e-m+fp/hard/libc.a(lib_a-locale.o)
strcpy                                            /usr/lib/gcc/arm-none-eabi/10.3.1/../../../arm-none-eabi/lib/thumb/v7e-m+fp/hard/libc.a(lib_a-strcpy.o)
                                                  ./.obj/my_test_commands.o
                                                  ./.obj/terminal.o
                                                  ./.obj/cli_input.o
                                                  ./.obj/main.o
strlen                                            /usr/lib/gcc/arm-none-eabi/10.3.1/../../../arm-none-eabi/lib/thumb/v7e-m+fp/hard/libc.a(lib_a-strlen.o)
                                                  /usr/lib/gcc/arm-none-eabi/10.3.1/../../../arm-none-eabi/lib/thumb/v7e-m+fp/hard/libc.a(lib_a-vfiprintf.o)
                                                  /usr/lib/gcc/arm-none-eabi/10.3.1/../../../arm-none-eabi/lib/thumb/v7e-m+fp/hard/libc.a(lib_a-svfiprintf.o)
                                                  /usr/lib/gcc/arm-none-eabi/10.3.1/../../../arm-none-eabi/lib/thumb/v7e-m+fp/hard/libc.a(lib_a-svfprintf.o)
strtol                                            /usr/lib/gcc/arm-none-eabi/10.3.1/../../../arm-none-eabi/lib/thumb/v7e-m+fp/hard/libc.a(lib_a-strtol.o)
                                                  ./.obj/terminal.o
strtol_l                                          /usr/lib/gcc/arm-none-eabi/10.3.1/../../../arm-none-eabi/lib/thumb/v7e-m+fp/hard/libc.a(lib_a-strtol.o)
sv_call_handler                                   ./libopencm3/lib/libopencm3_stm32f4.a(vector.o)
sys_tick_handler                                  ./libopencm3/lib/libopencm3_stm32f4.a(vector.o)
tamp_stamp_isr                                    ./libopencm3/lib/libopencm3_stm32f4.a(vector.o)
tim1_brk_tim9_isr                                 ./libopencm3/lib/libopencm3_stm32f4.a(vector.o)
tim1_cc_isr                                       ./libopencm3/lib/libopencm3_stm32f4.a(vector.o)
tim1_trg_com_tim11_isr                            ./libopencm3/lib/libopencm3_stm32f4.a(vector.o)
tim1_up_tim10_isr                                 ./libopencm3/lib/libopencm3_stm32f4.a(vector.o)
tim2_isr                                          ./.obj/Time.o
tim3_isr                                          ./libopencm3/lib/libopencm3_stm32f4.a(vector.o)
tim4_isr                                          ./libopencm3/lib/libopencm3_stm32f4.a(vector.o)
tim5_isr                                          ./libopencm3/lib/libopencm3_stm32f4.a(vector.o)
tim6_dac_isr                                      ./libopencm3/lib/libopencm3_stm32f4.a(vector.o)
tim7_isr                                          ./libopencm3/lib/libopencm3_stm32f4.a(vector.o)
tim8_brk_tim12_isr                                ./libopencm3/lib/libopencm3_stm32f4.a(vector.o)
tim8_cc_isr                                       ./libopencm3/lib/libopencm3_stm32f4.a(vector.o)
tim8_trg_com_tim14_isr                            ./libopencm3/lib/libopencm3_stm32f4.a(vector.o)
tim8_up_tim13_isr                                 ./libopencm3/lib/libopencm3_stm32f4.a(vector.o)
timer_clear_flag                                  ./libopencm3/lib/libopencm3_stm32f4.a(timer_common_all.o)
                                                  ./.obj/Time.o
timer_continuous_mode                             ./libopencm3/lib/libopencm3_stm32f4.a(timer_common_all.o)
                                                  ./.obj/Time.o
timer_direction_down                              ./libopencm3/lib/libopencm3_stm32f4.a(timer_common_all.o)
timer_direction_up                                ./libopencm3/lib/libopencm3_stm32f4.a(timer_common_all.o)
timer_disable_break                               ./libopencm3/lib/libopencm3_stm32f4.a(timer_common_all.o)
timer_disable_break_automatic_output              ./libopencm3/lib/libopencm3_stm32f4.a(timer_common_all.o)
timer_disable_break_main_output                   ./libopencm3/lib/libopencm3_stm32f4.a(timer_common_all.o)
timer_disable_compare_control_update_on_trigger   ./libopencm3/lib/libopencm3_stm32f4.a(timer_common_all.o)
timer_disable_counter                             ./libopencm3/lib/libopencm3_stm32f4.a(timer_common_all.o)
timer_disable_irq                                 ./libopencm3/lib/libopencm3_stm32f4.a(timer_common_all.o)
timer_disable_oc_clear                            ./libopencm3/lib/libopencm3_stm32f4.a(timer_common_all.o)
timer_disable_oc_output                           ./libopencm3/lib/libopencm3_stm32f4.a(timer_common_all.o)
timer_disable_oc_preload                          ./libopencm3/lib/libopencm3_stm32f4.a(timer_common_all.o)
timer_disable_preload                             ./libopencm3/lib/libopencm3_stm32f4.a(timer_common_all.o)
                                                  ./.obj/Time.o
timer_disable_preload_complementry_enable_bits    ./libopencm3/lib/libopencm3_stm32f4.a(timer_common_all.o)
timer_disable_update_event                        ./libopencm3/lib/libopencm3_stm32f4.a(timer_common_all.o)
timer_enable_break                                ./libopencm3/lib/libopencm3_stm32f4.a(timer_common_all.o)
timer_enable_break_automatic_output               ./libopencm3/lib/libopencm3_stm32f4.a(timer_common_all.o)
timer_enable_break_main_output                    ./libopencm3/lib/libopencm3_stm32f4.a(timer_common_all.o)
timer_enable_compare_control_update_on_trigger    ./libopencm3/lib/libopencm3_stm32f4.a(timer_common_all.o)
timer_enable_counter                              ./libopencm3/lib/libopencm3_stm32f4.a(timer_common_all.o)
                                                  ./.obj/Time.o
timer_enable_irq                                  ./libopencm3/lib/libopencm3_stm32f4.a(timer_common_all.o)
                                                  ./.obj/Time.o
timer_enable_oc_clear                             ./libopencm3/lib/libopencm3_stm32f4.a(timer_common_all.o)
timer_enable_oc_output                            ./libopencm3/lib/libopencm3_stm32f4.a(timer_common_all.o)
timer_enable_oc_preload                           ./libopencm3/lib/libopencm3_stm32f4.a(timer_common_all.o)
timer_enable_preload                              ./libopencm3/lib/libopencm3_stm32f4.a(timer_common_all.o)
timer_enable_preload_complementry_enable_bits     ./libopencm3/lib/libopencm3_stm32f4.a(timer_common_all.o)
timer_enable_update_event                         ./libopencm3/lib/libopencm3_stm32f4.a(timer_common_all.o)
timer_generate_event                              ./libopencm3/lib/libopencm3_stm32f4.a(timer_common_all.o)
                                                  ./.obj/Time.o
timer_get_counter                                 ./libopencm3/lib/libopencm3_stm32f4.a(timer_common_all.o)
                                                  ./.obj/Time.o
timer_get_flag                                    ./libopencm3/lib/libopencm3_stm32f4.a(timer_common_all.o)
timer_ic_disable                                  ./libopencm3/lib/libopencm3_stm32f4.a(timer_common_all.o)
timer_ic_enable                                   ./libopencm3/lib/libopencm3_stm32f4.a(timer_common_all.o)
timer_ic_set_filter                               ./libopencm3/lib/libopencm3_stm32f4.a(timer_common_all.o)
timer_ic_set_input                                ./libopencm3/lib/libopencm3_stm32f4.a(timer_common_all.o)
timer_ic_set_prescaler                            ./libopencm3/lib/libopencm3_stm32f4.a(timer_common_all.o)
timer_interrupt_source                            ./libopencm3/lib/libopencm3_stm32f4.a(timer_common_all.o)
timer_one_shot_mode                               ./libopencm3/lib/libopencm3_stm32f4.a(timer_common_all.o)
timer_reset_output_idle_state                     ./libopencm3/lib/libopencm3_stm32f4.a(timer_common_all.o)
timer_set_alignment                               ./libopencm3/lib/libopencm3_stm32f4.a(timer_common_all.o)
timer_set_break_lock                              ./libopencm3/lib/libopencm3_stm32f4.a(timer_common_all.o)
timer_set_break_polarity_high                     ./libopencm3/lib/libopencm3_stm32f4.a(timer_common_all.o)
timer_set_break_polarity_low                      ./libopencm3/lib/libopencm3_stm32f4.a(timer_common_all.o)
timer_set_clock_division                          ./libopencm3/lib/libopencm3_stm32f4.a(timer_common_all.o)
timer_set_counter                                 ./libopencm3/lib/libopencm3_stm32f4.a(timer_common_all.o)
                                                  ./.obj/Time.o
timer_set_deadtime                                ./libopencm3/lib/libopencm3_stm32f4.a(timer_common_all.o)
timer_set_disabled_off_state_in_idle_mode         ./libopencm3/lib/libopencm3_stm32f4.a(timer_common_all.o)
timer_set_disabled_off_state_in_run_mode          ./libopencm3/lib/libopencm3_stm32f4.a(timer_common_all.o)
timer_set_dma_on_compare_event                    ./libopencm3/lib/libopencm3_stm32f4.a(timer_common_all.o)
timer_set_dma_on_update_event                     ./libopencm3/lib/libopencm3_stm32f4.a(timer_common_all.o)
timer_set_enabled_off_state_in_idle_mode          ./libopencm3/lib/libopencm3_stm32f4.a(timer_common_all.o)
timer_set_enabled_off_state_in_run_mode           ./libopencm3/lib/libopencm3_stm32f4.a(timer_common_all.o)
timer_set_master_mode                             ./libopencm3/lib/libopencm3_stm32f4.a(timer_common_all.o)
timer_set_mode                                    ./libopencm3/lib/libopencm3_stm32f4.a(timer_common_all.o)
                                                  ./.obj/Time.o
timer_set_oc_fast_mode                            ./libopencm3/lib/libopencm3_stm32f4.a(timer_common_all.o)
timer_set_oc_idle_state_set                       ./libopencm3/lib/libopencm3_stm32f4.a(timer_common_all.o)
timer_set_oc_idle_state_unset                     ./libopencm3/lib/libopencm3_stm32f4.a(timer_common_all.o)
timer_set_oc_mode                                 ./libopencm3/lib/libopencm3_stm32f4.a(timer_common_all.o)
timer_set_oc_polarity_high                        ./libopencm3/lib/libopencm3_stm32f4.a(timer_common_all.o)
timer_set_oc_polarity_low                         ./libopencm3/lib/libopencm3_stm32f4.a(timer_common_all.o)
timer_set_oc_slow_mode                            ./libopencm3/lib/libopencm3_stm32f4.a(timer_common_all.o)
timer_set_oc_value                                ./libopencm3/lib/libopencm3_stm32f4.a(timer_common_all.o)
timer_set_output_idle_state                       ./libopencm3/lib/libopencm3_stm32f4.a(timer_common_all.o)
timer_set_period                                  ./libopencm3/lib/libopencm3_stm32f4.a(timer_common_all.o)
                                                  ./.obj/Time.o
timer_set_prescaler                               ./libopencm3/lib/libopencm3_stm32f4.a(timer_common_all.o)
                                                  ./.obj/Time.o
timer_set_repetition_counter                      ./libopencm3/lib/libopencm3_stm32f4.a(timer_common_all.o)
timer_set_ti1_ch1                                 ./libopencm3/lib/libopencm3_stm32f4.a(timer_common_all.o)
timer_set_ti1_ch123_xor                           ./libopencm3/lib/libopencm3_stm32f4.a(timer_common_all.o)
timer_slave_set_extclockmode2                     ./libopencm3/lib/libopencm3_stm32f4.a(timer_common_all.o)
timer_slave_set_filter                            ./libopencm3/lib/libopencm3_stm32f4.a(timer_common_all.o)
timer_slave_set_mode                              ./libopencm3/lib/libopencm3_stm32f4.a(timer_common_all.o)
timer_slave_set_polarity                          ./libopencm3/lib/libopencm3_stm32f4.a(timer_common_all.o)
timer_slave_set_prescaler                         ./libopencm3/lib/libopencm3_stm32f4.a(timer_common_all.o)
timer_slave_set_trigger                           ./libopencm3/lib/libopencm3_stm32f4.a(timer_common_all.o)
timer_update_on_any                               ./libopencm3/lib/libopencm3_stm32f4.a(timer_common_all.o)
timer_update_on_overflow                          ./libopencm3/lib/libopencm3_stm32f4.a(timer_common_all.o)
uart4_isr                                         ./libopencm3/lib/libopencm3_stm32f4.a(vector.o)
uart5_isr                                         ./libopencm3/lib/libopencm3_stm32f4.a(vector.o)
uart7_isr                                         ./libopencm3/lib/libopencm3_stm32f4.a(vector.o)
uart8_isr                                         ./libopencm3/lib/libopencm3_stm32f4.a(vector.o)
usage_fault_handler                               ./libopencm3/lib/libopencm3_stm32f4.a(vector.o)
usart1_isr                                        ./.obj/main.o
usart2_isr                                        ./libopencm3/lib/libopencm3_stm32f4.a(vector.o)
usart3_isr                                        ./libopencm3/lib/libopencm3_stm32f4.a(vector.o)
usart6_isr                                        ./libopencm3/lib/libopencm3_stm32f4.a(vector.o)
usart_disable                                     ./libopencm3/lib/libopencm3_stm32f4.a(usart_common_all.o)
usart_disable_error_interrupt                     ./libopencm3/lib/libopencm3_stm32f4.a(usart_common_all.o)
usart_disable_idle_interrupt                      ./libopencm3/lib/libopencm3_stm32f4.a(usart_common_all.o)
usart_disable_rx_dma                              ./libopencm3/lib/libopencm3_stm32f4.a(usart_common_all.o)
usart_disable_rx_interrupt                        ./libopencm3/lib/libopencm3_stm32f4.a(usart_common_all.o)
usart_disable_tx_complete_interrupt               ./libopencm3/lib/libopencm3_stm32f4.a(usart_common_all.o)
usart_disable_tx_dma                              ./libopencm3/lib/libopencm3_stm32f4.a(usart_common_all.o)
usart_disable_tx_interrupt                        ./libopencm3/lib/libopencm3_stm32f4.a(usart_common_all.o)
usart_enable                                      ./libopencm3/lib/libopencm3_stm32f4.a(usart_common_all.o)
                                                  ./.obj/main.o
usart_enable_error_interrupt                      ./libopencm3/lib/libopencm3_stm32f4.a(usart_common_all.o)
usart_enable_idle_interrupt                       ./libopencm3/lib/libopencm3_stm32f4.a(usart_common_all.o)
usart_enable_rx_dma                               ./libopencm3/lib/libopencm3_stm32f4.a(usart_common_all.o)
usart_enable_rx_interrupt                         ./libopencm3/lib/libopencm3_stm32f4.a(usart_common_all.o)
                                                  ./.obj/main.o
usart_enable_tx_complete_interrupt                ./libopencm3/lib/libopencm3_stm32f4.a(usart_common_all.o)
usart_enable_tx_dma                               ./libopencm3/lib/libopencm3_stm32f4.a(usart_common_all.o)
usart_enable_tx_interrupt                         ./libopencm3/lib/libopencm3_stm32f4.a(usart_common_all.o)
usart_get_databits                                ./libopencm3/lib/libopencm3_stm32f4.a(usart_common_all.o)
usart_get_flag                                    ./libopencm3/lib/libopencm3_stm32f4.a(usart_common_f124.o)
                                                  ./.obj/main.o
usart_get_parity                                  ./libopencm3/lib/libopencm3_stm32f4.a(usart_common_all.o)
usart_get_stopbits                                ./libopencm3/lib/libopencm3_stm32f4.a(usart_common_all.o)
usart_recv                                        ./libopencm3/lib/libopencm3_stm32f4.a(usart_common_f124.o)
                                                  ./libopencm3/lib/libopencm3_stm32f4.a(usart_common_all.o)
                                                  ./.obj/main.o
usart_recv_blocking                               ./libopencm3/lib/libopencm3_stm32f4.a(usart_common_all.o)
usart_send                                        ./libopencm3/lib/libopencm3_stm32f4.a(usart_common_f124.o)
                                                  ./libopencm3/lib/libopencm3_stm32f4.a(usart_common_all.o)
usart_send_blocking                               ./libopencm3/lib/libopencm3_stm32f4.a(usart_common_all.o)
                                                  ./.obj/main.o
usart_set_baudrate                                ./libopencm3/lib/libopencm3_stm32f4.a(usart_common_all.o)
                                                  ./.obj/main.o
usart_set_databits                                ./libopencm3/lib/libopencm3_stm32f4.a(usart_common_all.o)
                                                  ./.obj/main.o
usart_set_flow_control                            ./libopencm3/lib/libopencm3_stm32f4.a(usart_common_all.o)
                                                  ./.obj/main.o
usart_set_mode                                    ./libopencm3/lib/libopencm3_stm32f4.a(usart_common_all.o)
                                                  ./.obj/main.o
usart_set_parity                                  ./libopencm3/lib/libopencm3_stm32f4.a(usart_common_all.o)
                                                  ./.obj/main.o
usart_set_stopbits                                ./libopencm3/lib/libopencm3_stm32f4.a(usart_common_all.o)
                                                  ./.obj/main.o
usart_wait_recv_ready                             ./libopencm3/lib/libopencm3_stm32f4.a(usart_common_f124.o)
                                                  ./libopencm3/lib/libopencm3_stm32f4.a(usart_common_all.o)
usart_wait_send_ready                             ./libopencm3/lib/libopencm3_stm32f4.a(usart_common_f124.o)
                                                  ./libopencm3/lib/libopencm3_stm32f4.a(usart_common_all.o)
usb_fs_wkup_isr                                   ./libopencm3/lib/libopencm3_stm32f4.a(vector.o)
vector_table                                      ./libopencm3/lib/libopencm3_stm32f4.a(vector.o)
vfiprintf                                         /usr/lib/gcc/arm-none-eabi/10.3.1/../../../arm-none-eabi/lib/thumb/v7e-m+fp/hard/libc.a(lib_a-vfiprintf.o)
wcrtomb                                           /usr/lib/gcc/arm-none-eabi/10.3.1/../../../arm-none-eabi/lib/thumb/v7e-m+fp/hard/libc.a(lib_a-wcrtomb.o)
